
dhrystone.riscv:     file format elf32-littleriscv


Disassembly of section .text.init:

80000000 <_start>:
80000000:	00000093          	li	ra,0
80000004:	00000113          	li	sp,0
80000008:	00000193          	li	gp,0
8000000c:	00000213          	li	tp,0
80000010:	00000293          	li	t0,0
80000014:	00000313          	li	t1,0
80000018:	00000393          	li	t2,0
8000001c:	00000413          	li	s0,0
80000020:	00000493          	li	s1,0
80000024:	00000513          	li	a0,0
80000028:	00000593          	li	a1,0
8000002c:	00000613          	li	a2,0
80000030:	00000693          	li	a3,0
80000034:	00000713          	li	a4,0
80000038:	00000793          	li	a5,0
8000003c:	00000813          	li	a6,0
80000040:	00000893          	li	a7,0
80000044:	00000913          	li	s2,0
80000048:	00000993          	li	s3,0
8000004c:	00000a13          	li	s4,0
80000050:	00000a93          	li	s5,0
80000054:	00000b13          	li	s6,0
80000058:	00000b93          	li	s7,0
8000005c:	00000c13          	li	s8,0
80000060:	00000c93          	li	s9,0
80000064:	00000d13          	li	s10,0
80000068:	00000d93          	li	s11,0
8000006c:	00000e13          	li	t3,0
80000070:	00000e93          	li	t4,0
80000074:	00000f13          	li	t5,0
80000078:	00000f93          	li	t6,0
8000007c:	0001e2b7          	lui	t0,0x1e
80000080:	60028293          	addi	t0,t0,1536 # 1e600 <buflen.1+0x1e5c0>
80000084:	3002a073          	csrs	mstatus,t0
80000088:	00100293          	li	t0,1
8000008c:	01f29293          	slli	t0,t0,0x1f
80000090:	0002ca63          	bltz	t0,800000a4 <_start+0xa4>
80000094:	00100513          	li	a0,1
80000098:	00001297          	auipc	t0,0x1
8000009c:	f6a2a423          	sw	a0,-152(t0) # 80001000 <tohost>
800000a0:	ff5ff06f          	j	80000094 <_start+0x94>
800000a4:	00000297          	auipc	t0,0x0
800000a8:	04428293          	addi	t0,t0,68 # 800000e8 <trap_entry>
800000ac:	30529073          	csrw	mtvec,t0
800000b0:	00005197          	auipc	gp,0x5
800000b4:	31818193          	addi	gp,gp,792 # 800053c8 <__global_pointer$>
800000b8:	00007217          	auipc	tp,0x7
800000bc:	38720213          	addi	tp,tp,903 # 8000743f <_end+0x3f>
800000c0:	fc027213          	andi	tp,tp,-64
800000c4:	f1402573          	csrr	a0,mhartid
800000c8:	00100593          	li	a1,1
800000cc:	00b57063          	bgeu	a0,a1,800000cc <_start+0xcc>
800000d0:	00150113          	addi	sp,a0,1
800000d4:	01111113          	slli	sp,sp,0x11
800000d8:	00410133          	add	sp,sp,tp
800000dc:	01151613          	slli	a2,a0,0x11
800000e0:	00c20233          	add	tp,tp,a2
800000e4:	4910206f          	j	80002d74 <_init>

800000e8 <trap_entry>:
800000e8:	ef010113          	addi	sp,sp,-272
800000ec:	00112223          	sw	ra,4(sp)
800000f0:	00212423          	sw	sp,8(sp)
800000f4:	00312623          	sw	gp,12(sp)
800000f8:	00412823          	sw	tp,16(sp)
800000fc:	00512a23          	sw	t0,20(sp)
80000100:	00612c23          	sw	t1,24(sp)
80000104:	00712e23          	sw	t2,28(sp)
80000108:	02812023          	sw	s0,32(sp)
8000010c:	02912223          	sw	s1,36(sp)
80000110:	02a12423          	sw	a0,40(sp)
80000114:	02b12623          	sw	a1,44(sp)
80000118:	02c12823          	sw	a2,48(sp)
8000011c:	02d12a23          	sw	a3,52(sp)
80000120:	02e12c23          	sw	a4,56(sp)
80000124:	02f12e23          	sw	a5,60(sp)
80000128:	05012023          	sw	a6,64(sp)
8000012c:	05112223          	sw	a7,68(sp)
80000130:	05212423          	sw	s2,72(sp)
80000134:	05312623          	sw	s3,76(sp)
80000138:	05412823          	sw	s4,80(sp)
8000013c:	05512a23          	sw	s5,84(sp)
80000140:	05612c23          	sw	s6,88(sp)
80000144:	05712e23          	sw	s7,92(sp)
80000148:	07812023          	sw	s8,96(sp)
8000014c:	07912223          	sw	s9,100(sp)
80000150:	07a12423          	sw	s10,104(sp)
80000154:	07b12623          	sw	s11,108(sp)
80000158:	07c12823          	sw	t3,112(sp)
8000015c:	07d12a23          	sw	t4,116(sp)
80000160:	07e12c23          	sw	t5,120(sp)
80000164:	07f12e23          	sw	t6,124(sp)
80000168:	34202573          	csrr	a0,mcause
8000016c:	341025f3          	csrr	a1,mepc
80000170:	00010613          	mv	a2,sp
80000174:	09d020ef          	jal	80002a10 <handle_trap>
80000178:	34151073          	csrw	mepc,a0
8000017c:	000022b7          	lui	t0,0x2
80000180:	80028293          	addi	t0,t0,-2048 # 1800 <buflen.1+0x17c0>
80000184:	3002a073          	csrs	mstatus,t0
80000188:	00412083          	lw	ra,4(sp)
8000018c:	00812103          	lw	sp,8(sp)
80000190:	00c12183          	lw	gp,12(sp)
80000194:	01012203          	lw	tp,16(sp)
80000198:	01412283          	lw	t0,20(sp)
8000019c:	01812303          	lw	t1,24(sp)
800001a0:	01c12383          	lw	t2,28(sp)
800001a4:	02012403          	lw	s0,32(sp)
800001a8:	02412483          	lw	s1,36(sp)
800001ac:	02812503          	lw	a0,40(sp)
800001b0:	02c12583          	lw	a1,44(sp)
800001b4:	03012603          	lw	a2,48(sp)
800001b8:	03412683          	lw	a3,52(sp)
800001bc:	03812703          	lw	a4,56(sp)
800001c0:	03c12783          	lw	a5,60(sp)
800001c4:	04012803          	lw	a6,64(sp)
800001c8:	04412883          	lw	a7,68(sp)
800001cc:	04812903          	lw	s2,72(sp)
800001d0:	04c12983          	lw	s3,76(sp)
800001d4:	05012a03          	lw	s4,80(sp)
800001d8:	05412a83          	lw	s5,84(sp)
800001dc:	05812b03          	lw	s6,88(sp)
800001e0:	05c12b83          	lw	s7,92(sp)
800001e4:	06012c03          	lw	s8,96(sp)
800001e8:	06412c83          	lw	s9,100(sp)
800001ec:	06812d03          	lw	s10,104(sp)
800001f0:	06c12d83          	lw	s11,108(sp)
800001f4:	07012e03          	lw	t3,112(sp)
800001f8:	07412e83          	lw	t4,116(sp)
800001fc:	07812f03          	lw	t5,120(sp)
80000200:	07c12f83          	lw	t6,124(sp)
80000204:	11010113          	addi	sp,sp,272
80000208:	30200073          	mret

Disassembly of section .text:

80002000 <Proc_7>:
80002000:	00250513          	addi	a0,a0,2
80002004:	00b505b3          	add	a1,a0,a1
80002008:	00b62023          	sw	a1,0(a2)
8000200c:	00008067          	ret

80002010 <Proc_8>:
80002010:	00560713          	addi	a4,a2,5
80002014:	0c800813          	li	a6,200
80002018:	03070833          	mul	a6,a4,a6
8000201c:	00261613          	slli	a2,a2,0x2
80002020:	00271793          	slli	a5,a4,0x2
80002024:	00f50533          	add	a0,a0,a5
80002028:	00d52023          	sw	a3,0(a0)
8000202c:	06e52c23          	sw	a4,120(a0)
80002030:	00d52223          	sw	a3,4(a0)
80002034:	00c807b3          	add	a5,a6,a2
80002038:	00f587b3          	add	a5,a1,a5
8000203c:	0107a683          	lw	a3,16(a5)
80002040:	00e7aa23          	sw	a4,20(a5)
80002044:	00e7ac23          	sw	a4,24(a5)
80002048:	00168713          	addi	a4,a3,1
8000204c:	00e7a823          	sw	a4,16(a5)
80002050:	00052703          	lw	a4,0(a0)
80002054:	010585b3          	add	a1,a1,a6
80002058:	00c585b3          	add	a1,a1,a2
8000205c:	000017b7          	lui	a5,0x1
80002060:	00b787b3          	add	a5,a5,a1
80002064:	fae7aa23          	sw	a4,-76(a5) # fb4 <buflen.1+0xf74>
80002068:	00500713          	li	a4,5
8000206c:	82e1a223          	sw	a4,-2012(gp) # 80004bec <Int_Glob>
80002070:	00008067          	ret

80002074 <Func_1>:
80002074:	0ff57513          	zext.b	a0,a0
80002078:	0ff5f593          	zext.b	a1,a1
8000207c:	00b50663          	beq	a0,a1,80002088 <Func_1+0x14>
80002080:	00000513          	li	a0,0
80002084:	00008067          	ret
80002088:	80a18ea3          	sb	a0,-2019(gp) # 80004be5 <Ch_1_Glob>
8000208c:	00100513          	li	a0,1
80002090:	00008067          	ret

80002094 <Func_2>:
80002094:	ff010113          	addi	sp,sp,-16
80002098:	00812423          	sw	s0,8(sp)
8000209c:	00912223          	sw	s1,4(sp)
800020a0:	00112623          	sw	ra,12(sp)
800020a4:	00050413          	mv	s0,a0
800020a8:	00058493          	mv	s1,a1
800020ac:	0034c583          	lbu	a1,3(s1)
800020b0:	00244503          	lbu	a0,2(s0)
800020b4:	fc1ff0ef          	jal	80002074 <Func_1>
800020b8:	fe051ae3          	bnez	a0,800020ac <Func_2+0x18>
800020bc:	00048593          	mv	a1,s1
800020c0:	00040513          	mv	a0,s0
800020c4:	611000ef          	jal	80002ed4 <strcmp>
800020c8:	00000793          	li	a5,0
800020cc:	00a05863          	blez	a0,800020dc <Func_2+0x48>
800020d0:	00a00713          	li	a4,10
800020d4:	82e1a223          	sw	a4,-2012(gp) # 80004bec <Int_Glob>
800020d8:	00100793          	li	a5,1
800020dc:	00c12083          	lw	ra,12(sp)
800020e0:	00812403          	lw	s0,8(sp)
800020e4:	00412483          	lw	s1,4(sp)
800020e8:	00078513          	mv	a0,a5
800020ec:	01010113          	addi	sp,sp,16
800020f0:	00008067          	ret

800020f4 <Func_3>:
800020f4:	ffe50513          	addi	a0,a0,-2
800020f8:	00153513          	seqz	a0,a0
800020fc:	00008067          	ret

80002100 <Proc_6>:
80002100:	ff010113          	addi	sp,sp,-16
80002104:	00812423          	sw	s0,8(sp)
80002108:	00912223          	sw	s1,4(sp)
8000210c:	00112623          	sw	ra,12(sp)
80002110:	00050413          	mv	s0,a0
80002114:	00058493          	mv	s1,a1
80002118:	fddff0ef          	jal	800020f4 <Func_3>
8000211c:	00300793          	li	a5,3
80002120:	00050463          	beqz	a0,80002128 <Proc_6+0x28>
80002124:	00040793          	mv	a5,s0
80002128:	00f4a023          	sw	a5,0(s1)
8000212c:	00200793          	li	a5,2
80002130:	04f40863          	beq	s0,a5,80002180 <Proc_6+0x80>
80002134:	0287e663          	bltu	a5,s0,80002160 <Proc_6+0x60>
80002138:	00040863          	beqz	s0,80002148 <Proc_6+0x48>
8000213c:	8241a703          	lw	a4,-2012(gp) # 80004bec <Int_Glob>
80002140:	06400793          	li	a5,100
80002144:	04e7dc63          	bge	a5,a4,8000219c <Proc_6+0x9c>
80002148:	00c12083          	lw	ra,12(sp)
8000214c:	00812403          	lw	s0,8(sp)
80002150:	0004a023          	sw	zero,0(s1)
80002154:	00412483          	lw	s1,4(sp)
80002158:	01010113          	addi	sp,sp,16
8000215c:	00008067          	ret
80002160:	00400713          	li	a4,4
80002164:	00e41463          	bne	s0,a4,8000216c <Proc_6+0x6c>
80002168:	00f4a023          	sw	a5,0(s1)
8000216c:	00c12083          	lw	ra,12(sp)
80002170:	00812403          	lw	s0,8(sp)
80002174:	00412483          	lw	s1,4(sp)
80002178:	01010113          	addi	sp,sp,16
8000217c:	00008067          	ret
80002180:	00c12083          	lw	ra,12(sp)
80002184:	00812403          	lw	s0,8(sp)
80002188:	00100793          	li	a5,1
8000218c:	00f4a023          	sw	a5,0(s1)
80002190:	00412483          	lw	s1,4(sp)
80002194:	01010113          	addi	sp,sp,16
80002198:	00008067          	ret
8000219c:	00c12083          	lw	ra,12(sp)
800021a0:	00812403          	lw	s0,8(sp)
800021a4:	00300793          	li	a5,3
800021a8:	00f4a023          	sw	a5,0(s1)
800021ac:	00412483          	lw	s1,4(sp)
800021b0:	01010113          	addi	sp,sp,16
800021b4:	00008067          	ret

800021b8 <debug_printf>:
800021b8:	fe010113          	addi	sp,sp,-32
800021bc:	00b12223          	sw	a1,4(sp)
800021c0:	00c12423          	sw	a2,8(sp)
800021c4:	00d12623          	sw	a3,12(sp)
800021c8:	00e12823          	sw	a4,16(sp)
800021cc:	00f12a23          	sw	a5,20(sp)
800021d0:	01012c23          	sw	a6,24(sp)
800021d4:	01112e23          	sw	a7,28(sp)
800021d8:	02010113          	addi	sp,sp,32
800021dc:	00008067          	ret

800021e0 <Proc_2>:
800021e0:	81d1c703          	lbu	a4,-2019(gp) # 80004be5 <Ch_1_Glob>
800021e4:	04100793          	li	a5,65
800021e8:	00f70463          	beq	a4,a5,800021f0 <Proc_2+0x10>
800021ec:	00008067          	ret
800021f0:	00052783          	lw	a5,0(a0)
800021f4:	8241a703          	lw	a4,-2012(gp) # 80004bec <Int_Glob>
800021f8:	00978793          	addi	a5,a5,9
800021fc:	40e787b3          	sub	a5,a5,a4
80002200:	00f52023          	sw	a5,0(a0)
80002204:	00008067          	ret

80002208 <Proc_3>:
80002208:	82c1a603          	lw	a2,-2004(gp) # 80004bf4 <Ptr_Glob>
8000220c:	00060863          	beqz	a2,8000221c <Proc_3+0x14>
80002210:	00062703          	lw	a4,0(a2)
80002214:	00e52023          	sw	a4,0(a0)
80002218:	82c1a603          	lw	a2,-2004(gp) # 80004bf4 <Ptr_Glob>
8000221c:	8241a583          	lw	a1,-2012(gp) # 80004bec <Int_Glob>
80002220:	00c60613          	addi	a2,a2,12
80002224:	00a00513          	li	a0,10
80002228:	dd9ff06f          	j	80002000 <Proc_7>

8000222c <Proc_1>:
8000222c:	ff010113          	addi	sp,sp,-16
80002230:	01212023          	sw	s2,0(sp)
80002234:	82c1a783          	lw	a5,-2004(gp) # 80004bf4 <Ptr_Glob>
80002238:	00812423          	sw	s0,8(sp)
8000223c:	00052403          	lw	s0,0(a0)
80002240:	0007a703          	lw	a4,0(a5)
80002244:	0047af03          	lw	t5,4(a5)
80002248:	0087ae83          	lw	t4,8(a5)
8000224c:	0107ae03          	lw	t3,16(a5)
80002250:	0147a303          	lw	t1,20(a5)
80002254:	0187a883          	lw	a7,24(a5)
80002258:	01c7a803          	lw	a6,28(a5)
8000225c:	0247a583          	lw	a1,36(a5)
80002260:	0287a603          	lw	a2,40(a5)
80002264:	02c7a683          	lw	a3,44(a5)
80002268:	00912223          	sw	s1,4(sp)
8000226c:	00112623          	sw	ra,12(sp)
80002270:	00050493          	mv	s1,a0
80002274:	0207a503          	lw	a0,32(a5)
80002278:	00e42023          	sw	a4,0(s0)
8000227c:	0004a703          	lw	a4,0(s1)
80002280:	00500793          	li	a5,5
80002284:	02a42023          	sw	a0,32(s0)
80002288:	01e42223          	sw	t5,4(s0)
8000228c:	01d42423          	sw	t4,8(s0)
80002290:	01c42823          	sw	t3,16(s0)
80002294:	00642a23          	sw	t1,20(s0)
80002298:	01142c23          	sw	a7,24(s0)
8000229c:	01042e23          	sw	a6,28(s0)
800022a0:	02b42223          	sw	a1,36(s0)
800022a4:	02c42423          	sw	a2,40(s0)
800022a8:	02d42623          	sw	a3,44(s0)
800022ac:	00f4a623          	sw	a5,12(s1)
800022b0:	00f42623          	sw	a5,12(s0)
800022b4:	00e42023          	sw	a4,0(s0)
800022b8:	00040513          	mv	a0,s0
800022bc:	f4dff0ef          	jal	80002208 <Proc_3>
800022c0:	00442783          	lw	a5,4(s0)
800022c4:	08078063          	beqz	a5,80002344 <Proc_1+0x118>
800022c8:	0004a783          	lw	a5,0(s1)
800022cc:	00c12083          	lw	ra,12(sp)
800022d0:	00812403          	lw	s0,8(sp)
800022d4:	0007af83          	lw	t6,0(a5)
800022d8:	0047af03          	lw	t5,4(a5)
800022dc:	0087ae83          	lw	t4,8(a5)
800022e0:	00c7ae03          	lw	t3,12(a5)
800022e4:	0107a303          	lw	t1,16(a5)
800022e8:	0147a883          	lw	a7,20(a5)
800022ec:	0187a803          	lw	a6,24(a5)
800022f0:	01c7a583          	lw	a1,28(a5)
800022f4:	0207a603          	lw	a2,32(a5)
800022f8:	0247a683          	lw	a3,36(a5)
800022fc:	0287a703          	lw	a4,40(a5)
80002300:	02c7a783          	lw	a5,44(a5)
80002304:	01f4a023          	sw	t6,0(s1)
80002308:	01e4a223          	sw	t5,4(s1)
8000230c:	01d4a423          	sw	t4,8(s1)
80002310:	01c4a623          	sw	t3,12(s1)
80002314:	0064a823          	sw	t1,16(s1)
80002318:	0114aa23          	sw	a7,20(s1)
8000231c:	0104ac23          	sw	a6,24(s1)
80002320:	00b4ae23          	sw	a1,28(s1)
80002324:	02c4a023          	sw	a2,32(s1)
80002328:	02d4a223          	sw	a3,36(s1)
8000232c:	02e4a423          	sw	a4,40(s1)
80002330:	02f4a623          	sw	a5,44(s1)
80002334:	00012903          	lw	s2,0(sp)
80002338:	00412483          	lw	s1,4(sp)
8000233c:	01010113          	addi	sp,sp,16
80002340:	00008067          	ret
80002344:	0084a503          	lw	a0,8(s1)
80002348:	00600793          	li	a5,6
8000234c:	00f42623          	sw	a5,12(s0)
80002350:	00840593          	addi	a1,s0,8
80002354:	dadff0ef          	jal	80002100 <Proc_6>
80002358:	82c1a783          	lw	a5,-2004(gp) # 80004bf4 <Ptr_Glob>
8000235c:	00c42503          	lw	a0,12(s0)
80002360:	00c40613          	addi	a2,s0,12
80002364:	0007a783          	lw	a5,0(a5)
80002368:	00c12083          	lw	ra,12(sp)
8000236c:	00412483          	lw	s1,4(sp)
80002370:	00f42023          	sw	a5,0(s0)
80002374:	00812403          	lw	s0,8(sp)
80002378:	00012903          	lw	s2,0(sp)
8000237c:	00a00593          	li	a1,10
80002380:	01010113          	addi	sp,sp,16
80002384:	c7dff06f          	j	80002000 <Proc_7>

80002388 <Proc_4>:
80002388:	81d1c783          	lbu	a5,-2019(gp) # 80004be5 <Ch_1_Glob>
8000238c:	8201a683          	lw	a3,-2016(gp) # 80004be8 <Bool_Glob>
80002390:	fbf78793          	addi	a5,a5,-65
80002394:	0017b793          	seqz	a5,a5
80002398:	00d7e7b3          	or	a5,a5,a3
8000239c:	82f1a023          	sw	a5,-2016(gp) # 80004be8 <Bool_Glob>
800023a0:	04200713          	li	a4,66
800023a4:	80e18e23          	sb	a4,-2020(gp) # 80004be4 <Ch_2_Glob>
800023a8:	00008067          	ret

800023ac <Proc_5>:
800023ac:	04100713          	li	a4,65
800023b0:	80e18ea3          	sb	a4,-2019(gp) # 80004be5 <Ch_1_Glob>
800023b4:	8201a023          	sw	zero,-2016(gp) # 80004be8 <Bool_Glob>
800023b8:	00008067          	ret

800023bc <vprintfmt>:
800023bc:	800057b7          	lui	a5,0x80005
800023c0:	eb010113          	addi	sp,sp,-336
800023c4:	92078793          	addi	a5,a5,-1760 # 80004920 <main+0xd38>
800023c8:	14812423          	sw	s0,328(sp)
800023cc:	15212023          	sw	s2,320(sp)
800023d0:	13312e23          	sw	s3,316(sp)
800023d4:	13512a23          	sw	s5,308(sp)
800023d8:	14112623          	sw	ra,332(sp)
800023dc:	14912223          	sw	s1,324(sp)
800023e0:	13412c23          	sw	s4,312(sp)
800023e4:	13712623          	sw	s7,300(sp)
800023e8:	13812423          	sw	s8,296(sp)
800023ec:	13a12023          	sw	s10,288(sp)
800023f0:	11b12e23          	sw	s11,284(sp)
800023f4:	00050993          	mv	s3,a0
800023f8:	00058913          	mv	s2,a1
800023fc:	00060413          	mv	s0,a2
80002400:	00d12423          	sw	a3,8(sp)
80002404:	02500a93          	li	s5,37
80002408:	00f12623          	sw	a5,12(sp)
8000240c:	0140006f          	j	80002420 <vprintfmt+0x64>
80002410:	06050063          	beqz	a0,80002470 <vprintfmt+0xb4>
80002414:	00090593          	mv	a1,s2
80002418:	00140413          	addi	s0,s0,1
8000241c:	000980e7          	jalr	s3
80002420:	00044503          	lbu	a0,0(s0)
80002424:	ff5516e3          	bne	a0,s5,80002410 <vprintfmt+0x54>
80002428:	00144683          	lbu	a3,1(s0)
8000242c:	00140a13          	addi	s4,s0,1
80002430:	02000793          	li	a5,32
80002434:	000a0713          	mv	a4,s4
80002438:	00f12223          	sw	a5,4(sp)
8000243c:	fff00493          	li	s1,-1
80002440:	fff00c13          	li	s8,-1
80002444:	00000593          	li	a1,0
80002448:	fdd68793          	addi	a5,a3,-35
8000244c:	0ff7f793          	zext.b	a5,a5
80002450:	05500613          	li	a2,85
80002454:	00170413          	addi	s0,a4,1
80002458:	06f66663          	bltu	a2,a5,800024c4 <vprintfmt+0x108>
8000245c:	00c12603          	lw	a2,12(sp)
80002460:	00279793          	slli	a5,a5,0x2
80002464:	00c787b3          	add	a5,a5,a2
80002468:	0007a783          	lw	a5,0(a5)
8000246c:	00078067          	jr	a5
80002470:	14c12083          	lw	ra,332(sp)
80002474:	14812403          	lw	s0,328(sp)
80002478:	14412483          	lw	s1,324(sp)
8000247c:	14012903          	lw	s2,320(sp)
80002480:	13c12983          	lw	s3,316(sp)
80002484:	13812a03          	lw	s4,312(sp)
80002488:	13412a83          	lw	s5,308(sp)
8000248c:	12c12b83          	lw	s7,300(sp)
80002490:	12812c03          	lw	s8,296(sp)
80002494:	12012d03          	lw	s10,288(sp)
80002498:	11c12d83          	lw	s11,284(sp)
8000249c:	15010113          	addi	sp,sp,336
800024a0:	00008067          	ret
800024a4:	00d12223          	sw	a3,4(sp)
800024a8:	00174683          	lbu	a3,1(a4)
800024ac:	05500613          	li	a2,85
800024b0:	00040713          	mv	a4,s0
800024b4:	fdd68793          	addi	a5,a3,-35
800024b8:	0ff7f793          	zext.b	a5,a5
800024bc:	00170413          	addi	s0,a4,1
800024c0:	f8f67ee3          	bgeu	a2,a5,8000245c <vprintfmt+0xa0>
800024c4:	00090593          	mv	a1,s2
800024c8:	02500513          	li	a0,37
800024cc:	000980e7          	jalr	s3
800024d0:	000a0413          	mv	s0,s4
800024d4:	f4dff06f          	j	80002420 <vprintfmt+0x64>
800024d8:	00174603          	lbu	a2,1(a4)
800024dc:	00900793          	li	a5,9
800024e0:	fd068493          	addi	s1,a3,-48
800024e4:	fd060713          	addi	a4,a2,-48
800024e8:	00060693          	mv	a3,a2
800024ec:	3ce7e063          	bltu	a5,a4,800028ac <vprintfmt+0x4f0>
800024f0:	00040713          	mv	a4,s0
800024f4:	00900513          	li	a0,9
800024f8:	00249793          	slli	a5,s1,0x2
800024fc:	009787b3          	add	a5,a5,s1
80002500:	00170713          	addi	a4,a4,1
80002504:	00179793          	slli	a5,a5,0x1
80002508:	00c787b3          	add	a5,a5,a2
8000250c:	00074603          	lbu	a2,0(a4)
80002510:	fd078493          	addi	s1,a5,-48
80002514:	fd060793          	addi	a5,a2,-48
80002518:	00060693          	mv	a3,a2
8000251c:	fcf57ee3          	bgeu	a0,a5,800024f8 <vprintfmt+0x13c>
80002520:	f20c54e3          	bgez	s8,80002448 <vprintfmt+0x8c>
80002524:	00048c13          	mv	s8,s1
80002528:	fff00493          	li	s1,-1
8000252c:	f1dff06f          	j	80002448 <vprintfmt+0x8c>
80002530:	00174683          	lbu	a3,1(a4)
80002534:	00040713          	mv	a4,s0
80002538:	f11ff06f          	j	80002448 <vprintfmt+0x8c>
8000253c:	00090593          	mv	a1,s2
80002540:	02500513          	li	a0,37
80002544:	000980e7          	jalr	s3
80002548:	ed9ff06f          	j	80002420 <vprintfmt+0x64>
8000254c:	00812783          	lw	a5,8(sp)
80002550:	00174683          	lbu	a3,1(a4)
80002554:	00040713          	mv	a4,s0
80002558:	0007a483          	lw	s1,0(a5)
8000255c:	00478793          	addi	a5,a5,4
80002560:	00f12423          	sw	a5,8(sp)
80002564:	fbdff06f          	j	80002520 <vprintfmt+0x164>
80002568:	00090593          	mv	a1,s2
8000256c:	03000513          	li	a0,48
80002570:	13612823          	sw	s6,304(sp)
80002574:	000980e7          	jalr	s3
80002578:	00090593          	mv	a1,s2
8000257c:	07800513          	li	a0,120
80002580:	000980e7          	jalr	s3
80002584:	00812783          	lw	a5,8(sp)
80002588:	01000b93          	li	s7,16
8000258c:	00000d93          	li	s11,0
80002590:	00478713          	addi	a4,a5,4
80002594:	00812783          	lw	a5,8(sp)
80002598:	00000d13          	li	s10,0
8000259c:	0007a483          	lw	s1,0(a5)
800025a0:	00e12423          	sw	a4,8(sp)
800025a4:	000b8613          	mv	a2,s7
800025a8:	00000693          	li	a3,0
800025ac:	00048513          	mv	a0,s1
800025b0:	000d0593          	mv	a1,s10
800025b4:	250010ef          	jal	80003804 <__umoddi3>
800025b8:	00a12823          	sw	a0,16(sp)
800025bc:	27ad8863          	beq	s11,s10,8000282c <vprintfmt+0x470>
800025c0:	13912223          	sw	s9,292(sp)
800025c4:	00100b13          	li	s6,1
800025c8:	01410c93          	addi	s9,sp,20
800025cc:	000b8613          	mv	a2,s7
800025d0:	00000693          	li	a3,0
800025d4:	00048513          	mv	a0,s1
800025d8:	000d0593          	mv	a1,s10
800025dc:	5f9000ef          	jal	800033d4 <__udivdi3>
800025e0:	000b8613          	mv	a2,s7
800025e4:	00000693          	li	a3,0
800025e8:	00050493          	mv	s1,a0
800025ec:	00058d13          	mv	s10,a1
800025f0:	214010ef          	jal	80003804 <__umoddi3>
800025f4:	00aca023          	sw	a0,0(s9)
800025f8:	000b0a13          	mv	s4,s6
800025fc:	004c8c93          	addi	s9,s9,4
80002600:	001b0b13          	addi	s6,s6,1
80002604:	fdad94e3          	bne	s11,s10,800025cc <vprintfmt+0x210>
80002608:	fd74f2e3          	bgeu	s1,s7,800025cc <vprintfmt+0x210>
8000260c:	12412c83          	lw	s9,292(sp)
80002610:	fffc0b93          	addi	s7,s8,-1
80002614:	fffb0493          	addi	s1,s6,-1
80002618:	018b5c63          	bge	s6,s8,80002630 <vprintfmt+0x274>
8000261c:	00412503          	lw	a0,4(sp)
80002620:	00090593          	mv	a1,s2
80002624:	fffb8b93          	addi	s7,s7,-1
80002628:	000980e7          	jalr	s3
8000262c:	fe9b98e3          	bne	s7,s1,8000261c <vprintfmt+0x260>
80002630:	01010493          	addi	s1,sp,16
80002634:	002a1a13          	slli	s4,s4,0x2
80002638:	01448a33          	add	s4,s1,s4
8000263c:	00900b13          	li	s6,9
80002640:	0080006f          	j	80002648 <vprintfmt+0x28c>
80002644:	00078a13          	mv	s4,a5
80002648:	000a2783          	lw	a5,0(s4)
8000264c:	03000513          	li	a0,48
80002650:	00fb7463          	bgeu	s6,a5,80002658 <vprintfmt+0x29c>
80002654:	05700513          	li	a0,87
80002658:	00a78533          	add	a0,a5,a0
8000265c:	00090593          	mv	a1,s2
80002660:	000980e7          	jalr	s3
80002664:	ffca0793          	addi	a5,s4,-4
80002668:	fd449ee3          	bne	s1,s4,80002644 <vprintfmt+0x288>
8000266c:	13012b03          	lw	s6,304(sp)
80002670:	db1ff06f          	j	80002420 <vprintfmt+0x64>
80002674:	13612823          	sw	s6,304(sp)
80002678:	00100793          	li	a5,1
8000267c:	1cb7c063          	blt	a5,a1,8000283c <vprintfmt+0x480>
80002680:	00812783          	lw	a5,8(sp)
80002684:	0007a483          	lw	s1,0(a5)
80002688:	00478793          	addi	a5,a5,4
8000268c:	00f12423          	sw	a5,8(sp)
80002690:	41f4dd13          	srai	s10,s1,0x1f
80002694:	020d5063          	bgez	s10,800026b4 <vprintfmt+0x2f8>
80002698:	00090593          	mv	a1,s2
8000269c:	02d00513          	li	a0,45
800026a0:	000980e7          	jalr	s3
800026a4:	00903733          	snez	a4,s1
800026a8:	41a007b3          	neg	a5,s10
800026ac:	409004b3          	neg	s1,s1
800026b0:	40e78d33          	sub	s10,a5,a4
800026b4:	00a00b93          	li	s7,10
800026b8:	00000d93          	li	s11,0
800026bc:	ee9ff06f          	j	800025a4 <vprintfmt+0x1e8>
800026c0:	00174683          	lbu	a3,1(a4)
800026c4:	00158593          	addi	a1,a1,1
800026c8:	00040713          	mv	a4,s0
800026cc:	d7dff06f          	j	80002448 <vprintfmt+0x8c>
800026d0:	13612823          	sw	s6,304(sp)
800026d4:	01000b93          	li	s7,16
800026d8:	00000d93          	li	s11,0
800026dc:	00100793          	li	a5,1
800026e0:	12b7c263          	blt	a5,a1,80002804 <vprintfmt+0x448>
800026e4:	00812783          	lw	a5,8(sp)
800026e8:	00478713          	addi	a4,a5,4
800026ec:	ea9ff06f          	j	80002594 <vprintfmt+0x1d8>
800026f0:	00812783          	lw	a5,8(sp)
800026f4:	13912223          	sw	s9,292(sp)
800026f8:	0007aa03          	lw	s4,0(a5)
800026fc:	00478c93          	addi	s9,a5,4
80002700:	180a0263          	beqz	s4,80002884 <vprintfmt+0x4c8>
80002704:	0b805a63          	blez	s8,800027b8 <vprintfmt+0x3fc>
80002708:	00412703          	lw	a4,4(sp)
8000270c:	02d00793          	li	a5,45
80002710:	06f71463          	bne	a4,a5,80002778 <vprintfmt+0x3bc>
80002714:	000a4503          	lbu	a0,0(s4)
80002718:	02050c63          	beqz	a0,80002750 <vprintfmt+0x394>
8000271c:	13612823          	sw	s6,304(sp)
80002720:	fff00b13          	li	s6,-1
80002724:	0004c663          	bltz	s1,80002730 <vprintfmt+0x374>
80002728:	fff48493          	addi	s1,s1,-1
8000272c:	01648e63          	beq	s1,s6,80002748 <vprintfmt+0x38c>
80002730:	00090593          	mv	a1,s2
80002734:	000980e7          	jalr	s3
80002738:	001a4503          	lbu	a0,1(s4)
8000273c:	fffc0c13          	addi	s8,s8,-1
80002740:	001a0a13          	addi	s4,s4,1
80002744:	fe0510e3          	bnez	a0,80002724 <vprintfmt+0x368>
80002748:	13012b03          	lw	s6,304(sp)
8000274c:	01805c63          	blez	s8,80002764 <vprintfmt+0x3a8>
80002750:	00090593          	mv	a1,s2
80002754:	02000513          	li	a0,32
80002758:	fffc0c13          	addi	s8,s8,-1
8000275c:	000980e7          	jalr	s3
80002760:	fe0c18e3          	bnez	s8,80002750 <vprintfmt+0x394>
80002764:	01912423          	sw	s9,8(sp)
80002768:	12412c83          	lw	s9,292(sp)
8000276c:	cb5ff06f          	j	80002420 <vprintfmt+0x64>
80002770:	80005a37          	lui	s4,0x80005
80002774:	8e0a0a13          	addi	s4,s4,-1824 # 800048e0 <main+0xcf8>
80002778:	000a0793          	mv	a5,s4
8000277c:	009a06b3          	add	a3,s4,s1
80002780:	00049863          	bnez	s1,80002790 <vprintfmt+0x3d4>
80002784:	0200006f          	j	800027a4 <vprintfmt+0x3e8>
80002788:	00178793          	addi	a5,a5,1
8000278c:	00d78663          	beq	a5,a3,80002798 <vprintfmt+0x3dc>
80002790:	0007c703          	lbu	a4,0(a5)
80002794:	fe071ae3          	bnez	a4,80002788 <vprintfmt+0x3cc>
80002798:	414787b3          	sub	a5,a5,s4
8000279c:	40fc0c33          	sub	s8,s8,a5
800027a0:	01805c63          	blez	s8,800027b8 <vprintfmt+0x3fc>
800027a4:	00412503          	lw	a0,4(sp)
800027a8:	00090593          	mv	a1,s2
800027ac:	fffc0c13          	addi	s8,s8,-1
800027b0:	000980e7          	jalr	s3
800027b4:	fe0c18e3          	bnez	s8,800027a4 <vprintfmt+0x3e8>
800027b8:	000a4503          	lbu	a0,0(s4)
800027bc:	fa0504e3          	beqz	a0,80002764 <vprintfmt+0x3a8>
800027c0:	13612823          	sw	s6,304(sp)
800027c4:	f5dff06f          	j	80002720 <vprintfmt+0x364>
800027c8:	fffc4793          	not	a5,s8
800027cc:	41f7d793          	srai	a5,a5,0x1f
800027d0:	00174683          	lbu	a3,1(a4)
800027d4:	00fc7c33          	and	s8,s8,a5
800027d8:	00040713          	mv	a4,s0
800027dc:	c6dff06f          	j	80002448 <vprintfmt+0x8c>
800027e0:	00812783          	lw	a5,8(sp)
800027e4:	13912223          	sw	s9,292(sp)
800027e8:	00090593          	mv	a1,s2
800027ec:	0007a503          	lw	a0,0(a5)
800027f0:	00478c93          	addi	s9,a5,4
800027f4:	000980e7          	jalr	s3
800027f8:	01912423          	sw	s9,8(sp)
800027fc:	12412c83          	lw	s9,292(sp)
80002800:	c21ff06f          	j	80002420 <vprintfmt+0x64>
80002804:	00812783          	lw	a5,8(sp)
80002808:	13912223          	sw	s9,292(sp)
8000280c:	00778c93          	addi	s9,a5,7
80002810:	ff8cfc93          	andi	s9,s9,-8
80002814:	008c8793          	addi	a5,s9,8
80002818:	000ca483          	lw	s1,0(s9)
8000281c:	004cad03          	lw	s10,4(s9)
80002820:	00f12423          	sw	a5,8(sp)
80002824:	12412c83          	lw	s9,292(sp)
80002828:	d7dff06f          	j	800025a4 <vprintfmt+0x1e8>
8000282c:	d974fae3          	bgeu	s1,s7,800025c0 <vprintfmt+0x204>
80002830:	00000a13          	li	s4,0
80002834:	00100b13          	li	s6,1
80002838:	dd9ff06f          	j	80002610 <vprintfmt+0x254>
8000283c:	00812783          	lw	a5,8(sp)
80002840:	13912223          	sw	s9,292(sp)
80002844:	00778c93          	addi	s9,a5,7
80002848:	ff8cfc93          	andi	s9,s9,-8
8000284c:	008c8793          	addi	a5,s9,8
80002850:	000ca483          	lw	s1,0(s9)
80002854:	004cad03          	lw	s10,4(s9)
80002858:	00f12423          	sw	a5,8(sp)
8000285c:	12412c83          	lw	s9,292(sp)
80002860:	e35ff06f          	j	80002694 <vprintfmt+0x2d8>
80002864:	13612823          	sw	s6,304(sp)
80002868:	00a00b93          	li	s7,10
8000286c:	00000d93          	li	s11,0
80002870:	e6dff06f          	j	800026dc <vprintfmt+0x320>
80002874:	13612823          	sw	s6,304(sp)
80002878:	00800b93          	li	s7,8
8000287c:	00000d93          	li	s11,0
80002880:	e5dff06f          	j	800026dc <vprintfmt+0x320>
80002884:	01805863          	blez	s8,80002894 <vprintfmt+0x4d8>
80002888:	00412703          	lw	a4,4(sp)
8000288c:	02d00793          	li	a5,45
80002890:	eef710e3          	bne	a4,a5,80002770 <vprintfmt+0x3b4>
80002894:	80005a37          	lui	s4,0x80005
80002898:	13612823          	sw	s6,304(sp)
8000289c:	8e0a0a13          	addi	s4,s4,-1824 # 800048e0 <main+0xcf8>
800028a0:	02800513          	li	a0,40
800028a4:	fff00b13          	li	s6,-1
800028a8:	e7dff06f          	j	80002724 <vprintfmt+0x368>
800028ac:	00040713          	mv	a4,s0
800028b0:	c71ff06f          	j	80002520 <vprintfmt+0x164>

800028b4 <sprintf_putch.0>:
800028b4:	0005a783          	lw	a5,0(a1)
800028b8:	00a78023          	sb	a0,0(a5)
800028bc:	0005a783          	lw	a5,0(a1)
800028c0:	00178793          	addi	a5,a5,1
800028c4:	00f5a023          	sw	a5,0(a1)
800028c8:	00008067          	ret

800028cc <putchar>:
800028cc:	04022803          	lw	a6,64(tp) # 40 <buflen.1>
800028d0:	00020793          	mv	a5,tp
800028d4:	010787b3          	add	a5,a5,a6
800028d8:	f8010113          	addi	sp,sp,-128
800028dc:	00180713          	addi	a4,a6,1
800028e0:	04e22023          	sw	a4,64(tp) # 40 <buflen.1>
800028e4:	00a78023          	sb	a0,0(a5)
800028e8:	03f10693          	addi	a3,sp,63
800028ec:	00a00793          	li	a5,10
800028f0:	fc06f693          	andi	a3,a3,-64
800028f4:	00f50c63          	beq	a0,a5,8000290c <putchar+0x40>
800028f8:	04000793          	li	a5,64
800028fc:	00f70863          	beq	a4,a5,8000290c <putchar+0x40>
80002900:	00000513          	li	a0,0
80002904:	08010113          	addi	sp,sp,128
80002908:	00008067          	ret
8000290c:	04000813          	li	a6,64
80002910:	0106a023          	sw	a6,0(a3)
80002914:	00000893          	li	a7,0
80002918:	0116a223          	sw	a7,4(a3)
8000291c:	00100e13          	li	t3,1
80002920:	01c6a423          	sw	t3,8(a3)
80002924:	00000e93          	li	t4,0
80002928:	01d6a623          	sw	t4,12(a3)
8000292c:	00020313          	mv	t1,tp
80002930:	0066a823          	sw	t1,16(a3)
80002934:	00000393          	li	t2,0
80002938:	0076aa23          	sw	t2,20(a3)
8000293c:	00e6ac23          	sw	a4,24(a3)
80002940:	41f75893          	srai	a7,a4,0x1f
80002944:	0116ae23          	sw	a7,28(a3)
80002948:	0ff0000f          	fence
8000294c:	80001637          	lui	a2,0x80001
80002950:	00d62023          	sw	a3,0(a2) # 80001000 <tohost>
80002954:	00000793          	li	a5,0
80002958:	00f62223          	sw	a5,4(a2)
8000295c:	80001637          	lui	a2,0x80001
80002960:	04062703          	lw	a4,64(a2) # 80001040 <fromhost>
80002964:	04462783          	lw	a5,68(a2)
80002968:	00f76733          	or	a4,a4,a5
8000296c:	fe070ae3          	beqz	a4,80002960 <putchar+0x94>
80002970:	00000793          	li	a5,0
80002974:	04f62023          	sw	a5,64(a2)
80002978:	00000813          	li	a6,0
8000297c:	05062223          	sw	a6,68(a2)
80002980:	0ff0000f          	fence
80002984:	04022023          	sw	zero,64(tp) # 40 <buflen.1>
80002988:	0006a703          	lw	a4,0(a3)
8000298c:	00000513          	li	a0,0
80002990:	0046a783          	lw	a5,4(a3)
80002994:	08010113          	addi	sp,sp,128
80002998:	00008067          	ret

8000299c <setStats>:
8000299c:	b0002773          	csrr	a4,mcycle
800029a0:	83818793          	addi	a5,gp,-1992 # 80004c00 <counters>
800029a4:	00050a63          	beqz	a0,800029b8 <setStats+0x1c>
800029a8:	00e7a023          	sw	a4,0(a5)
800029ac:	b0202773          	csrr	a4,minstret
800029b0:	00e7a223          	sw	a4,4(a5)
800029b4:	00008067          	ret
800029b8:	0007a683          	lw	a3,0(a5)
800029bc:	80005637          	lui	a2,0x80005
800029c0:	8e860613          	addi	a2,a2,-1816 # 800048e8 <main+0xd00>
800029c4:	40d70733          	sub	a4,a4,a3
800029c8:	83018693          	addi	a3,gp,-2000 # 80004bf8 <counter_names>
800029cc:	00c6a023          	sw	a2,0(a3)
800029d0:	00e7a023          	sw	a4,0(a5)
800029d4:	b0202773          	csrr	a4,minstret
800029d8:	0047a603          	lw	a2,4(a5)
800029dc:	40c70733          	sub	a4,a4,a2
800029e0:	80005637          	lui	a2,0x80005
800029e4:	8f060613          	addi	a2,a2,-1808 # 800048f0 <main+0xd08>
800029e8:	00c6a223          	sw	a2,4(a3)
800029ec:	00e7a223          	sw	a4,4(a5)
800029f0:	00008067          	ret

800029f4 <tohost_exit>:
800029f4:	00151693          	slli	a3,a0,0x1
800029f8:	0016e713          	ori	a4,a3,1
800029fc:	800016b7          	lui	a3,0x80001
80002a00:	00000793          	li	a5,0
80002a04:	00e6a023          	sw	a4,0(a3) # 80001000 <tohost>
80002a08:	00f6a223          	sw	a5,4(a3)
80002a0c:	0000006f          	j	80002a0c <tohost_exit+0x18>

80002a10 <handle_trap>:
80002a10:	00001637          	lui	a2,0x1
80002a14:	800017b7          	lui	a5,0x80001
80002a18:	a7360613          	addi	a2,a2,-1421 # a73 <buflen.1+0xa33>
80002a1c:	00000693          	li	a3,0
80002a20:	00c7a023          	sw	a2,0(a5) # 80001000 <tohost>
80002a24:	00d7a223          	sw	a3,4(a5)
80002a28:	0000006f          	j	80002a28 <handle_trap+0x18>

80002a2c <exit>:
80002a2c:	ff010113          	addi	sp,sp,-16
80002a30:	00112623          	sw	ra,12(sp)
80002a34:	fc1ff0ef          	jal	800029f4 <tohost_exit>

80002a38 <abort>:
80002a38:	800017b7          	lui	a5,0x80001
80002a3c:	10d00613          	li	a2,269
80002a40:	00000693          	li	a3,0
80002a44:	00c7a023          	sw	a2,0(a5) # 80001000 <tohost>
80002a48:	00d7a223          	sw	a3,4(a5)
80002a4c:	0000006f          	j	80002a4c <abort+0x14>

80002a50 <printstr>:
80002a50:	00054783          	lbu	a5,0(a0)
80002a54:	f8010113          	addi	sp,sp,-128
80002a58:	03f10613          	addi	a2,sp,63
80002a5c:	00050813          	mv	a6,a0
80002a60:	fc067613          	andi	a2,a2,-64
80002a64:	00000893          	li	a7,0
80002a68:	08078c63          	beqz	a5,80002b00 <printstr+0xb0>
80002a6c:	00050793          	mv	a5,a0
80002a70:	0017c703          	lbu	a4,1(a5)
80002a74:	00178793          	addi	a5,a5,1
80002a78:	fe071ce3          	bnez	a4,80002a70 <printstr+0x20>
80002a7c:	40a78333          	sub	t1,a5,a0
80002a80:	00000393          	li	t2,0
80002a84:	04000713          	li	a4,64
80002a88:	00e62023          	sw	a4,0(a2)
80002a8c:	00000793          	li	a5,0
80002a90:	00f62223          	sw	a5,4(a2)
80002a94:	00100713          	li	a4,1
80002a98:	00e62423          	sw	a4,8(a2)
80002a9c:	00000793          	li	a5,0
80002aa0:	00f62623          	sw	a5,12(a2)
80002aa4:	01062823          	sw	a6,16(a2)
80002aa8:	01162a23          	sw	a7,20(a2)
80002aac:	00662c23          	sw	t1,24(a2)
80002ab0:	00762e23          	sw	t2,28(a2)
80002ab4:	0ff0000f          	fence
80002ab8:	800016b7          	lui	a3,0x80001
80002abc:	00c6a023          	sw	a2,0(a3) # 80001000 <tohost>
80002ac0:	00000793          	li	a5,0
80002ac4:	00f6a223          	sw	a5,4(a3)
80002ac8:	800016b7          	lui	a3,0x80001
80002acc:	0406a703          	lw	a4,64(a3) # 80001040 <fromhost>
80002ad0:	0446a783          	lw	a5,68(a3)
80002ad4:	00f76733          	or	a4,a4,a5
80002ad8:	fe070ae3          	beqz	a4,80002acc <printstr+0x7c>
80002adc:	00000793          	li	a5,0
80002ae0:	04f6a023          	sw	a5,64(a3)
80002ae4:	00000813          	li	a6,0
80002ae8:	0506a223          	sw	a6,68(a3)
80002aec:	0ff0000f          	fence
80002af0:	00062703          	lw	a4,0(a2)
80002af4:	00462783          	lw	a5,4(a2)
80002af8:	08010113          	addi	sp,sp,128
80002afc:	00008067          	ret
80002b00:	00000313          	li	t1,0
80002b04:	00000393          	li	t2,0
80002b08:	f7dff06f          	j	80002a84 <printstr+0x34>

80002b0c <thread_entry>:
80002b0c:	00050463          	beqz	a0,80002b14 <thread_entry+0x8>
80002b10:	0000006f          	j	80002b10 <thread_entry+0x4>
80002b14:	00008067          	ret

80002b18 <printhex>:
80002b18:	fd010113          	addi	sp,sp,-48
80002b1c:	00050713          	mv	a4,a0
80002b20:	02112623          	sw	ra,44(sp)
80002b24:	00c10513          	addi	a0,sp,12
80002b28:	01b10693          	addi	a3,sp,27
80002b2c:	00900813          	li	a6,9
80002b30:	0080006f          	j	80002b38 <printhex+0x20>
80002b34:	00078693          	mv	a3,a5
80002b38:	00f77793          	andi	a5,a4,15
80002b3c:	00f837b3          	sltu	a5,a6,a5
80002b40:	40f007b3          	neg	a5,a5
80002b44:	0277f793          	andi	a5,a5,39
80002b48:	00f77613          	andi	a2,a4,15
80002b4c:	03078793          	addi	a5,a5,48
80002b50:	00f607b3          	add	a5,a2,a5
80002b54:	00f68023          	sb	a5,0(a3)
80002b58:	01c59613          	slli	a2,a1,0x1c
80002b5c:	00475713          	srli	a4,a4,0x4
80002b60:	fff68793          	addi	a5,a3,-1
80002b64:	00e66733          	or	a4,a2,a4
80002b68:	0045d593          	srli	a1,a1,0x4
80002b6c:	fcd514e3          	bne	a0,a3,80002b34 <printhex+0x1c>
80002b70:	00010e23          	sb	zero,28(sp)
80002b74:	eddff0ef          	jal	80002a50 <printstr>
80002b78:	02c12083          	lw	ra,44(sp)
80002b7c:	03010113          	addi	sp,sp,48
80002b80:	00008067          	ret

80002b84 <printf>:
80002b84:	fc010113          	addi	sp,sp,-64
80002b88:	02410313          	addi	t1,sp,36
80002b8c:	02c12423          	sw	a2,40(sp)
80002b90:	00050613          	mv	a2,a0
80002b94:	80003537          	lui	a0,0x80003
80002b98:	02b12223          	sw	a1,36(sp)
80002b9c:	02d12623          	sw	a3,44(sp)
80002ba0:	8cc50513          	addi	a0,a0,-1844 # 800028cc <putchar>
80002ba4:	00030693          	mv	a3,t1
80002ba8:	00000593          	li	a1,0
80002bac:	00112e23          	sw	ra,28(sp)
80002bb0:	02e12823          	sw	a4,48(sp)
80002bb4:	02f12a23          	sw	a5,52(sp)
80002bb8:	03012c23          	sw	a6,56(sp)
80002bbc:	03112e23          	sw	a7,60(sp)
80002bc0:	00612623          	sw	t1,12(sp)
80002bc4:	ff8ff0ef          	jal	800023bc <vprintfmt>
80002bc8:	01c12083          	lw	ra,28(sp)
80002bcc:	00000513          	li	a0,0
80002bd0:	04010113          	addi	sp,sp,64
80002bd4:	00008067          	ret

80002bd8 <sprintf>:
80002bd8:	fb010113          	addi	sp,sp,-80
80002bdc:	02812423          	sw	s0,40(sp)
80002be0:	03810e13          	addi	t3,sp,56
80002be4:	00050413          	mv	s0,a0
80002be8:	00a12623          	sw	a0,12(sp)
80002bec:	80003537          	lui	a0,0x80003
80002bf0:	02c12c23          	sw	a2,56(sp)
80002bf4:	02d12e23          	sw	a3,60(sp)
80002bf8:	00058613          	mv	a2,a1
80002bfc:	8b450513          	addi	a0,a0,-1868 # 800028b4 <sprintf_putch.0>
80002c00:	00c10593          	addi	a1,sp,12
80002c04:	000e0693          	mv	a3,t3
80002c08:	02112623          	sw	ra,44(sp)
80002c0c:	04f12223          	sw	a5,68(sp)
80002c10:	04e12023          	sw	a4,64(sp)
80002c14:	05012423          	sw	a6,72(sp)
80002c18:	05112623          	sw	a7,76(sp)
80002c1c:	01c12e23          	sw	t3,28(sp)
80002c20:	f9cff0ef          	jal	800023bc <vprintfmt>
80002c24:	00c12783          	lw	a5,12(sp)
80002c28:	00078023          	sb	zero,0(a5)
80002c2c:	00c12503          	lw	a0,12(sp)
80002c30:	02c12083          	lw	ra,44(sp)
80002c34:	40850533          	sub	a0,a0,s0
80002c38:	02812403          	lw	s0,40(sp)
80002c3c:	05010113          	addi	sp,sp,80
80002c40:	00008067          	ret

80002c44 <memcpy>:
80002c44:	00c5e7b3          	or	a5,a1,a2
80002c48:	00f567b3          	or	a5,a0,a5
80002c4c:	0037f793          	andi	a5,a5,3
80002c50:	00c50833          	add	a6,a0,a2
80002c54:	02078463          	beqz	a5,80002c7c <memcpy+0x38>
80002c58:	00c58633          	add	a2,a1,a2
80002c5c:	00050793          	mv	a5,a0
80002c60:	0b057663          	bgeu	a0,a6,80002d0c <memcpy+0xc8>
80002c64:	0005c703          	lbu	a4,0(a1)
80002c68:	00158593          	addi	a1,a1,1
80002c6c:	00178793          	addi	a5,a5,1
80002c70:	fee78fa3          	sb	a4,-1(a5)
80002c74:	fec598e3          	bne	a1,a2,80002c64 <memcpy+0x20>
80002c78:	00008067          	ret
80002c7c:	02050693          	addi	a3,a0,32
80002c80:	0906f863          	bgeu	a3,a6,80002d10 <memcpy+0xcc>
80002c84:	00068793          	mv	a5,a3
80002c88:	00058713          	mv	a4,a1
80002c8c:	00072383          	lw	t2,0(a4)
80002c90:	00472283          	lw	t0,4(a4)
80002c94:	00872f83          	lw	t6,8(a4)
80002c98:	00c72f03          	lw	t5,12(a4)
80002c9c:	01072e83          	lw	t4,16(a4)
80002ca0:	01472e03          	lw	t3,20(a4)
80002ca4:	01872303          	lw	t1,24(a4)
80002ca8:	01c72883          	lw	a7,28(a4)
80002cac:	02078793          	addi	a5,a5,32
80002cb0:	fc77a023          	sw	t2,-64(a5)
80002cb4:	fc57a223          	sw	t0,-60(a5)
80002cb8:	fdf7a423          	sw	t6,-56(a5)
80002cbc:	fde7a623          	sw	t5,-52(a5)
80002cc0:	fdd7a823          	sw	t4,-48(a5)
80002cc4:	fdc7aa23          	sw	t3,-44(a5)
80002cc8:	fc67ac23          	sw	t1,-40(a5)
80002ccc:	fd17ae23          	sw	a7,-36(a5)
80002cd0:	02070713          	addi	a4,a4,32
80002cd4:	fb07ece3          	bltu	a5,a6,80002c8c <memcpy+0x48>
80002cd8:	fdf60613          	addi	a2,a2,-33
80002cdc:	fe067793          	andi	a5,a2,-32
80002ce0:	02078793          	addi	a5,a5,32
80002ce4:	fe067613          	andi	a2,a2,-32
80002ce8:	00f585b3          	add	a1,a1,a5
80002cec:	00c687b3          	add	a5,a3,a2
80002cf0:	f907f4e3          	bgeu	a5,a6,80002c78 <memcpy+0x34>
80002cf4:	0005a703          	lw	a4,0(a1)
80002cf8:	00478793          	addi	a5,a5,4
80002cfc:	00458593          	addi	a1,a1,4
80002d00:	fee7ae23          	sw	a4,-4(a5)
80002d04:	ff07e8e3          	bltu	a5,a6,80002cf4 <memcpy+0xb0>
80002d08:	00008067          	ret
80002d0c:	00008067          	ret
80002d10:	00050793          	mv	a5,a0
80002d14:	fddff06f          	j	80002cf0 <memcpy+0xac>

80002d18 <memset>:
80002d18:	00c567b3          	or	a5,a0,a2
80002d1c:	0037f793          	andi	a5,a5,3
80002d20:	00c50633          	add	a2,a0,a2
80002d24:	02078063          	beqz	a5,80002d44 <memset+0x2c>
80002d28:	0ff5f593          	zext.b	a1,a1
80002d2c:	00050793          	mv	a5,a0
80002d30:	04c57063          	bgeu	a0,a2,80002d70 <memset+0x58>
80002d34:	00178793          	addi	a5,a5,1
80002d38:	feb78fa3          	sb	a1,-1(a5)
80002d3c:	fec79ce3          	bne	a5,a2,80002d34 <memset+0x1c>
80002d40:	00008067          	ret
80002d44:	0ff5f593          	zext.b	a1,a1
80002d48:	00859713          	slli	a4,a1,0x8
80002d4c:	00b70733          	add	a4,a4,a1
80002d50:	01071793          	slli	a5,a4,0x10
80002d54:	00f70733          	add	a4,a4,a5
80002d58:	fec574e3          	bgeu	a0,a2,80002d40 <memset+0x28>
80002d5c:	00050793          	mv	a5,a0
80002d60:	00478793          	addi	a5,a5,4
80002d64:	fee7ae23          	sw	a4,-4(a5)
80002d68:	fec7ece3          	bltu	a5,a2,80002d60 <memset+0x48>
80002d6c:	00008067          	ret
80002d70:	00008067          	ret

80002d74 <_init>:
80002d74:	f6010113          	addi	sp,sp,-160
80002d78:	800077b7          	lui	a5,0x80007
80002d7c:	08912a23          	sw	s1,148(sp)
80002d80:	800074b7          	lui	s1,0x80007
80002d84:	3e048493          	addi	s1,s1,992 # 800073e0 <_tdata_begin>
80002d88:	08812c23          	sw	s0,152(sp)
80002d8c:	3e078413          	addi	s0,a5,992 # 800073e0 <_tdata_begin>
80002d90:	40848433          	sub	s0,s1,s0
80002d94:	00040613          	mv	a2,s0
80002d98:	09312623          	sw	s3,140(sp)
80002d9c:	09412423          	sw	s4,136(sp)
80002da0:	00050993          	mv	s3,a0
80002da4:	00058a13          	mv	s4,a1
80002da8:	00020513          	mv	a0,tp
80002dac:	3e078593          	addi	a1,a5,992
80002db0:	08112e23          	sw	ra,156(sp)
80002db4:	09212823          	sw	s2,144(sp)
80002db8:	09512223          	sw	s5,132(sp)
80002dbc:	00020a93          	mv	s5,tp
80002dc0:	e85ff0ef          	jal	80002c44 <memcpy>
80002dc4:	80007637          	lui	a2,0x80007
80002dc8:	44460613          	addi	a2,a2,1092 # 80007444 <_tbss_end>
80002dcc:	40960633          	sub	a2,a2,s1
80002dd0:	00000593          	li	a1,0
80002dd4:	008a8533          	add	a0,s5,s0
80002dd8:	f41ff0ef          	jal	80002d18 <memset>
80002ddc:	000a0593          	mv	a1,s4
80002de0:	00098513          	mv	a0,s3
80002de4:	d29ff0ef          	jal	80002b0c <thread_entry>
80002de8:	00000593          	li	a1,0
80002dec:	00000513          	li	a0,0
80002df0:	5f9000ef          	jal	80003be8 <main>
80002df4:	83818413          	addi	s0,gp,-1992 # 80004c00 <counters>
80002df8:	00042683          	lw	a3,0(s0)
80002dfc:	03f10913          	addi	s2,sp,63
80002e00:	fc097913          	andi	s2,s2,-64
80002e04:	00050493          	mv	s1,a0
80002e08:	04069263          	bnez	a3,80002e4c <_init+0xd8>
80002e0c:	00442683          	lw	a3,4(s0)
80002e10:	00069663          	bnez	a3,80002e1c <_init+0xa8>
80002e14:	00048513          	mv	a0,s1
80002e18:	bddff0ef          	jal	800029f4 <tohost_exit>
80002e1c:	00090413          	mv	s0,s2
80002e20:	83018993          	addi	s3,gp,-2000 # 80004bf8 <counter_names>
80002e24:	80005a37          	lui	s4,0x80005
80002e28:	0049a603          	lw	a2,4(s3)
80002e2c:	00040513          	mv	a0,s0
80002e30:	914a0593          	addi	a1,s4,-1772 # 80004914 <main+0xd2c>
80002e34:	da5ff0ef          	jal	80002bd8 <sprintf>
80002e38:	00a40433          	add	s0,s0,a0
80002e3c:	fc890ce3          	beq	s2,s0,80002e14 <_init+0xa0>
80002e40:	00090513          	mv	a0,s2
80002e44:	c0dff0ef          	jal	80002a50 <printstr>
80002e48:	fcdff06f          	j	80002e14 <_init+0xa0>
80002e4c:	83018993          	addi	s3,gp,-2000 # 80004bf8 <counter_names>
80002e50:	0009a603          	lw	a2,0(s3)
80002e54:	80005a37          	lui	s4,0x80005
80002e58:	914a0593          	addi	a1,s4,-1772 # 80004914 <main+0xd2c>
80002e5c:	00090513          	mv	a0,s2
80002e60:	d79ff0ef          	jal	80002bd8 <sprintf>
80002e64:	00442683          	lw	a3,4(s0)
80002e68:	00a90433          	add	s0,s2,a0
80002e6c:	fc0688e3          	beqz	a3,80002e3c <_init+0xc8>
80002e70:	fb9ff06f          	j	80002e28 <_init+0xb4>

80002e74 <strlen>:
80002e74:	00054783          	lbu	a5,0(a0)
80002e78:	00078e63          	beqz	a5,80002e94 <strlen+0x20>
80002e7c:	00050793          	mv	a5,a0
80002e80:	0017c703          	lbu	a4,1(a5)
80002e84:	00178793          	addi	a5,a5,1
80002e88:	fe071ce3          	bnez	a4,80002e80 <strlen+0xc>
80002e8c:	40a78533          	sub	a0,a5,a0
80002e90:	00008067          	ret
80002e94:	00000513          	li	a0,0
80002e98:	00008067          	ret

80002e9c <strnlen>:
80002e9c:	00b506b3          	add	a3,a0,a1
80002ea0:	00050793          	mv	a5,a0
80002ea4:	00059863          	bnez	a1,80002eb4 <strnlen+0x18>
80002ea8:	0240006f          	j	80002ecc <strnlen+0x30>
80002eac:	00178793          	addi	a5,a5,1
80002eb0:	00f68a63          	beq	a3,a5,80002ec4 <strnlen+0x28>
80002eb4:	0007c703          	lbu	a4,0(a5)
80002eb8:	fe071ae3          	bnez	a4,80002eac <strnlen+0x10>
80002ebc:	40a78533          	sub	a0,a5,a0
80002ec0:	00008067          	ret
80002ec4:	40a68533          	sub	a0,a3,a0
80002ec8:	00008067          	ret
80002ecc:	00000513          	li	a0,0
80002ed0:	00008067          	ret

80002ed4 <strcmp>:
80002ed4:	00054783          	lbu	a5,0(a0)
80002ed8:	00158593          	addi	a1,a1,1
80002edc:	00150513          	addi	a0,a0,1
80002ee0:	fff5c703          	lbu	a4,-1(a1)
80002ee4:	00078863          	beqz	a5,80002ef4 <strcmp+0x20>
80002ee8:	fee786e3          	beq	a5,a4,80002ed4 <strcmp>
80002eec:	40e78533          	sub	a0,a5,a4
80002ef0:	00008067          	ret
80002ef4:	00000793          	li	a5,0
80002ef8:	ff5ff06f          	j	80002eec <strcmp+0x18>

80002efc <strcpy>:
80002efc:	00050793          	mv	a5,a0
80002f00:	0005c703          	lbu	a4,0(a1)
80002f04:	00178793          	addi	a5,a5,1
80002f08:	00158593          	addi	a1,a1,1
80002f0c:	fee78fa3          	sb	a4,-1(a5)
80002f10:	fe0718e3          	bnez	a4,80002f00 <strcpy+0x4>
80002f14:	00008067          	ret

80002f18 <atol>:
80002f18:	00054703          	lbu	a4,0(a0)
80002f1c:	02000693          	li	a3,32
80002f20:	00050793          	mv	a5,a0
80002f24:	00d71863          	bne	a4,a3,80002f34 <atol+0x1c>
80002f28:	0017c703          	lbu	a4,1(a5)
80002f2c:	00178793          	addi	a5,a5,1
80002f30:	fed70ce3          	beq	a4,a3,80002f28 <atol+0x10>
80002f34:	02d00693          	li	a3,45
80002f38:	04d70e63          	beq	a4,a3,80002f94 <atol+0x7c>
80002f3c:	02b00693          	li	a3,43
80002f40:	04d70063          	beq	a4,a3,80002f80 <atol+0x68>
80002f44:	0007c683          	lbu	a3,0(a5)
80002f48:	00000593          	li	a1,0
80002f4c:	04068c63          	beqz	a3,80002fa4 <atol+0x8c>
80002f50:	00000513          	li	a0,0
80002f54:	00178793          	addi	a5,a5,1
80002f58:	00251713          	slli	a4,a0,0x2
80002f5c:	fd068613          	addi	a2,a3,-48
80002f60:	0007c683          	lbu	a3,0(a5)
80002f64:	00a70733          	add	a4,a4,a0
80002f68:	00171713          	slli	a4,a4,0x1
80002f6c:	00e60533          	add	a0,a2,a4
80002f70:	fe0692e3          	bnez	a3,80002f54 <atol+0x3c>
80002f74:	02058a63          	beqz	a1,80002fa8 <atol+0x90>
80002f78:	40a00533          	neg	a0,a0
80002f7c:	00008067          	ret
80002f80:	0017c683          	lbu	a3,1(a5)
80002f84:	00178793          	addi	a5,a5,1
80002f88:	00068e63          	beqz	a3,80002fa4 <atol+0x8c>
80002f8c:	00000593          	li	a1,0
80002f90:	fc1ff06f          	j	80002f50 <atol+0x38>
80002f94:	0017c683          	lbu	a3,1(a5)
80002f98:	00100593          	li	a1,1
80002f9c:	00178793          	addi	a5,a5,1
80002fa0:	fa0698e3          	bnez	a3,80002f50 <atol+0x38>
80002fa4:	00000513          	li	a0,0
80002fa8:	00008067          	ret

80002fac <__moddi3>:
80002fac:	00058e13          	mv	t3,a1
80002fb0:	00000813          	li	a6,0
80002fb4:	0005dc63          	bgez	a1,80002fcc <__moddi3+0x20>
80002fb8:	00a037b3          	snez	a5,a0
80002fbc:	40b00e33          	neg	t3,a1
80002fc0:	40fe0e33          	sub	t3,t3,a5
80002fc4:	40a00533          	neg	a0,a0
80002fc8:	fff00813          	li	a6,-1
80002fcc:	0006da63          	bgez	a3,80002fe0 <__moddi3+0x34>
80002fd0:	00c037b3          	snez	a5,a2
80002fd4:	40d006b3          	neg	a3,a3
80002fd8:	40f686b3          	sub	a3,a3,a5
80002fdc:	40c00633          	neg	a2,a2
80002fe0:	00060893          	mv	a7,a2
80002fe4:	00050793          	mv	a5,a0
80002fe8:	000e0593          	mv	a1,t3
80002fec:	22069063          	bnez	a3,8000320c <__moddi3+0x260>
80002ff0:	80005737          	lui	a4,0x80005
80002ff4:	a7870713          	addi	a4,a4,-1416 # 80004a78 <__clz_tab>
80002ff8:	0ece7663          	bgeu	t3,a2,800030e4 <__moddi3+0x138>
80002ffc:	000106b7          	lui	a3,0x10
80003000:	0cd67863          	bgeu	a2,a3,800030d0 <__moddi3+0x124>
80003004:	10063693          	sltiu	a3,a2,256
80003008:	0016b693          	seqz	a3,a3
8000300c:	00369693          	slli	a3,a3,0x3
80003010:	00d65333          	srl	t1,a2,a3
80003014:	00670733          	add	a4,a4,t1
80003018:	00074703          	lbu	a4,0(a4)
8000301c:	00d70733          	add	a4,a4,a3
80003020:	02000693          	li	a3,32
80003024:	40e68333          	sub	t1,a3,a4
80003028:	00e68c63          	beq	a3,a4,80003040 <__moddi3+0x94>
8000302c:	006e15b3          	sll	a1,t3,t1
80003030:	00e55733          	srl	a4,a0,a4
80003034:	006618b3          	sll	a7,a2,t1
80003038:	00b765b3          	or	a1,a4,a1
8000303c:	006517b3          	sll	a5,a0,t1
80003040:	0108d613          	srli	a2,a7,0x10
80003044:	02c5d6b3          	divu	a3,a1,a2
80003048:	01089513          	slli	a0,a7,0x10
8000304c:	01055513          	srli	a0,a0,0x10
80003050:	0107d713          	srli	a4,a5,0x10
80003054:	02c5f5b3          	remu	a1,a1,a2
80003058:	02a686b3          	mul	a3,a3,a0
8000305c:	01059593          	slli	a1,a1,0x10
80003060:	00b76733          	or	a4,a4,a1
80003064:	00d77a63          	bgeu	a4,a3,80003078 <__moddi3+0xcc>
80003068:	00e88733          	add	a4,a7,a4
8000306c:	01176663          	bltu	a4,a7,80003078 <__moddi3+0xcc>
80003070:	00d77463          	bgeu	a4,a3,80003078 <__moddi3+0xcc>
80003074:	01170733          	add	a4,a4,a7
80003078:	40d70733          	sub	a4,a4,a3
8000307c:	02c756b3          	divu	a3,a4,a2
80003080:	02c77733          	remu	a4,a4,a2
80003084:	02a686b3          	mul	a3,a3,a0
80003088:	01079793          	slli	a5,a5,0x10
8000308c:	01071713          	slli	a4,a4,0x10
80003090:	0107d793          	srli	a5,a5,0x10
80003094:	00e7e7b3          	or	a5,a5,a4
80003098:	00d7fa63          	bgeu	a5,a3,800030ac <__moddi3+0x100>
8000309c:	00f887b3          	add	a5,a7,a5
800030a0:	0117e663          	bltu	a5,a7,800030ac <__moddi3+0x100>
800030a4:	00d7f463          	bgeu	a5,a3,800030ac <__moddi3+0x100>
800030a8:	011787b3          	add	a5,a5,a7
800030ac:	40d787b3          	sub	a5,a5,a3
800030b0:	0067d533          	srl	a0,a5,t1
800030b4:	00000593          	li	a1,0
800030b8:	00080a63          	beqz	a6,800030cc <__moddi3+0x120>
800030bc:	00a037b3          	snez	a5,a0
800030c0:	40b005b3          	neg	a1,a1
800030c4:	40f585b3          	sub	a1,a1,a5
800030c8:	40a00533          	neg	a0,a0
800030cc:	00008067          	ret
800030d0:	01000337          	lui	t1,0x1000
800030d4:	01800693          	li	a3,24
800030d8:	f2667ce3          	bgeu	a2,t1,80003010 <__moddi3+0x64>
800030dc:	01000693          	li	a3,16
800030e0:	f31ff06f          	j	80003010 <__moddi3+0x64>
800030e4:	00000693          	li	a3,0
800030e8:	00060c63          	beqz	a2,80003100 <__moddi3+0x154>
800030ec:	000106b7          	lui	a3,0x10
800030f0:	06d67e63          	bgeu	a2,a3,8000316c <__moddi3+0x1c0>
800030f4:	10063693          	sltiu	a3,a2,256
800030f8:	0016b693          	seqz	a3,a3
800030fc:	00369693          	slli	a3,a3,0x3
80003100:	00d655b3          	srl	a1,a2,a3
80003104:	00b70733          	add	a4,a4,a1
80003108:	00074703          	lbu	a4,0(a4)
8000310c:	00d70733          	add	a4,a4,a3
80003110:	02000693          	li	a3,32
80003114:	40e68333          	sub	t1,a3,a4
80003118:	06e69463          	bne	a3,a4,80003180 <__moddi3+0x1d4>
8000311c:	40ce0733          	sub	a4,t3,a2
80003120:	0108d593          	srli	a1,a7,0x10
80003124:	02b75633          	divu	a2,a4,a1
80003128:	01089513          	slli	a0,a7,0x10
8000312c:	01055513          	srli	a0,a0,0x10
80003130:	0107d693          	srli	a3,a5,0x10
80003134:	02b77733          	remu	a4,a4,a1
80003138:	02a60633          	mul	a2,a2,a0
8000313c:	01071713          	slli	a4,a4,0x10
80003140:	00e6e733          	or	a4,a3,a4
80003144:	00c77a63          	bgeu	a4,a2,80003158 <__moddi3+0x1ac>
80003148:	00e88733          	add	a4,a7,a4
8000314c:	01176663          	bltu	a4,a7,80003158 <__moddi3+0x1ac>
80003150:	00c77463          	bgeu	a4,a2,80003158 <__moddi3+0x1ac>
80003154:	01170733          	add	a4,a4,a7
80003158:	40c70733          	sub	a4,a4,a2
8000315c:	02b756b3          	divu	a3,a4,a1
80003160:	02b77733          	remu	a4,a4,a1
80003164:	02a686b3          	mul	a3,a3,a0
80003168:	f21ff06f          	j	80003088 <__moddi3+0xdc>
8000316c:	010005b7          	lui	a1,0x1000
80003170:	01800693          	li	a3,24
80003174:	f8b676e3          	bgeu	a2,a1,80003100 <__moddi3+0x154>
80003178:	01000693          	li	a3,16
8000317c:	f85ff06f          	j	80003100 <__moddi3+0x154>
80003180:	006618b3          	sll	a7,a2,t1
80003184:	00ee56b3          	srl	a3,t3,a4
80003188:	006517b3          	sll	a5,a0,t1
8000318c:	00e55733          	srl	a4,a0,a4
80003190:	0108d513          	srli	a0,a7,0x10
80003194:	02a6d5b3          	divu	a1,a3,a0
80003198:	006e1e33          	sll	t3,t3,t1
8000319c:	01c76733          	or	a4,a4,t3
800031a0:	01089e13          	slli	t3,a7,0x10
800031a4:	010e5e13          	srli	t3,t3,0x10
800031a8:	02a6f6b3          	remu	a3,a3,a0
800031ac:	03c585b3          	mul	a1,a1,t3
800031b0:	01069613          	slli	a2,a3,0x10
800031b4:	01075693          	srli	a3,a4,0x10
800031b8:	00c6e6b3          	or	a3,a3,a2
800031bc:	00b6fa63          	bgeu	a3,a1,800031d0 <__moddi3+0x224>
800031c0:	00d886b3          	add	a3,a7,a3
800031c4:	0116e663          	bltu	a3,a7,800031d0 <__moddi3+0x224>
800031c8:	00b6f463          	bgeu	a3,a1,800031d0 <__moddi3+0x224>
800031cc:	011686b3          	add	a3,a3,a7
800031d0:	40b686b3          	sub	a3,a3,a1
800031d4:	02a6d633          	divu	a2,a3,a0
800031d8:	01071713          	slli	a4,a4,0x10
800031dc:	01075713          	srli	a4,a4,0x10
800031e0:	02a6f6b3          	remu	a3,a3,a0
800031e4:	03c60633          	mul	a2,a2,t3
800031e8:	01069693          	slli	a3,a3,0x10
800031ec:	00d76733          	or	a4,a4,a3
800031f0:	00c77a63          	bgeu	a4,a2,80003204 <__moddi3+0x258>
800031f4:	00e88733          	add	a4,a7,a4
800031f8:	01176663          	bltu	a4,a7,80003204 <__moddi3+0x258>
800031fc:	00c77463          	bgeu	a4,a2,80003204 <__moddi3+0x258>
80003200:	01170733          	add	a4,a4,a7
80003204:	40c70733          	sub	a4,a4,a2
80003208:	f19ff06f          	j	80003120 <__moddi3+0x174>
8000320c:	eade66e3          	bltu	t3,a3,800030b8 <__moddi3+0x10c>
80003210:	00010737          	lui	a4,0x10
80003214:	04e6fc63          	bgeu	a3,a4,8000326c <__moddi3+0x2c0>
80003218:	1006b713          	sltiu	a4,a3,256
8000321c:	00173713          	seqz	a4,a4
80003220:	00371713          	slli	a4,a4,0x3
80003224:	800058b7          	lui	a7,0x80005
80003228:	00e6d333          	srl	t1,a3,a4
8000322c:	a7888893          	addi	a7,a7,-1416 # 80004a78 <__clz_tab>
80003230:	006888b3          	add	a7,a7,t1
80003234:	0008c883          	lbu	a7,0(a7)
80003238:	02000313          	li	t1,32
8000323c:	00e888b3          	add	a7,a7,a4
80003240:	41130733          	sub	a4,t1,a7
80003244:	03131e63          	bne	t1,a7,80003280 <__moddi3+0x2d4>
80003248:	01c6e463          	bltu	a3,t3,80003250 <__moddi3+0x2a4>
8000324c:	00c56c63          	bltu	a0,a2,80003264 <__moddi3+0x2b8>
80003250:	40c50633          	sub	a2,a0,a2
80003254:	40de06b3          	sub	a3,t3,a3
80003258:	00c535b3          	sltu	a1,a0,a2
8000325c:	00060793          	mv	a5,a2
80003260:	40b685b3          	sub	a1,a3,a1
80003264:	00078513          	mv	a0,a5
80003268:	e51ff06f          	j	800030b8 <__moddi3+0x10c>
8000326c:	010008b7          	lui	a7,0x1000
80003270:	01800713          	li	a4,24
80003274:	fb16f8e3          	bgeu	a3,a7,80003224 <__moddi3+0x278>
80003278:	01000713          	li	a4,16
8000327c:	fa9ff06f          	j	80003224 <__moddi3+0x278>
80003280:	00e696b3          	sll	a3,a3,a4
80003284:	01165333          	srl	t1,a2,a7
80003288:	00d36333          	or	t1,t1,a3
8000328c:	011e57b3          	srl	a5,t3,a7
80003290:	01035e93          	srli	t4,t1,0x10
80003294:	03d7dfb3          	divu	t6,a5,t4
80003298:	00ee1e33          	sll	t3,t3,a4
8000329c:	011555b3          	srl	a1,a0,a7
800032a0:	01c5e5b3          	or	a1,a1,t3
800032a4:	01031e13          	slli	t3,t1,0x10
800032a8:	010e5e13          	srli	t3,t3,0x10
800032ac:	00e61633          	sll	a2,a2,a4
800032b0:	00e51533          	sll	a0,a0,a4
800032b4:	03d7f7b3          	remu	a5,a5,t4
800032b8:	03fe0f33          	mul	t5,t3,t6
800032bc:	01079693          	slli	a3,a5,0x10
800032c0:	0105d793          	srli	a5,a1,0x10
800032c4:	00d7e7b3          	or	a5,a5,a3
800032c8:	000f8693          	mv	a3,t6
800032cc:	01e7fe63          	bgeu	a5,t5,800032e8 <__moddi3+0x33c>
800032d0:	00f307b3          	add	a5,t1,a5
800032d4:	ffff8693          	addi	a3,t6,-1
800032d8:	0067e863          	bltu	a5,t1,800032e8 <__moddi3+0x33c>
800032dc:	01e7f663          	bgeu	a5,t5,800032e8 <__moddi3+0x33c>
800032e0:	ffef8693          	addi	a3,t6,-2
800032e4:	006787b3          	add	a5,a5,t1
800032e8:	41e787b3          	sub	a5,a5,t5
800032ec:	03d7df33          	divu	t5,a5,t4
800032f0:	01059593          	slli	a1,a1,0x10
800032f4:	0105d593          	srli	a1,a1,0x10
800032f8:	03d7f7b3          	remu	a5,a5,t4
800032fc:	03ee0e33          	mul	t3,t3,t5
80003300:	01079793          	slli	a5,a5,0x10
80003304:	00f5e5b3          	or	a1,a1,a5
80003308:	000f0793          	mv	a5,t5
8000330c:	01c5fe63          	bgeu	a1,t3,80003328 <__moddi3+0x37c>
80003310:	00b305b3          	add	a1,t1,a1
80003314:	ffff0793          	addi	a5,t5,-1
80003318:	0065e863          	bltu	a1,t1,80003328 <__moddi3+0x37c>
8000331c:	01c5f663          	bgeu	a1,t3,80003328 <__moddi3+0x37c>
80003320:	ffef0793          	addi	a5,t5,-2
80003324:	006585b3          	add	a1,a1,t1
80003328:	01069693          	slli	a3,a3,0x10
8000332c:	00010fb7          	lui	t6,0x10
80003330:	00f6e6b3          	or	a3,a3,a5
80003334:	41c585b3          	sub	a1,a1,t3
80003338:	ffff8e13          	addi	t3,t6,-1 # ffff <buflen.1+0xffbf>
8000333c:	01c6f7b3          	and	a5,a3,t3
80003340:	01065e93          	srli	t4,a2,0x10
80003344:	0106d693          	srli	a3,a3,0x10
80003348:	01c67e33          	and	t3,a2,t3
8000334c:	03c78f33          	mul	t5,a5,t3
80003350:	03c68e33          	mul	t3,a3,t3
80003354:	03d787b3          	mul	a5,a5,t4
80003358:	03d686b3          	mul	a3,a3,t4
8000335c:	01c78eb3          	add	t4,a5,t3
80003360:	010f5793          	srli	a5,t5,0x10
80003364:	01d787b3          	add	a5,a5,t4
80003368:	01c7f463          	bgeu	a5,t3,80003370 <__moddi3+0x3c4>
8000336c:	01f686b3          	add	a3,a3,t6
80003370:	0107de13          	srli	t3,a5,0x10
80003374:	00de06b3          	add	a3,t3,a3
80003378:	00010e37          	lui	t3,0x10
8000337c:	fffe0e13          	addi	t3,t3,-1 # ffff <buflen.1+0xffbf>
80003380:	01c7f7b3          	and	a5,a5,t3
80003384:	01079793          	slli	a5,a5,0x10
80003388:	01cf7f33          	and	t5,t5,t3
8000338c:	01e787b3          	add	a5,a5,t5
80003390:	00d5e663          	bltu	a1,a3,8000339c <__moddi3+0x3f0>
80003394:	00d59e63          	bne	a1,a3,800033b0 <__moddi3+0x404>
80003398:	00f57c63          	bgeu	a0,a5,800033b0 <__moddi3+0x404>
8000339c:	40c78633          	sub	a2,a5,a2
800033a0:	00c7be33          	sltu	t3,a5,a2
800033a4:	00060793          	mv	a5,a2
800033a8:	006e0633          	add	a2,t3,t1
800033ac:	40c686b3          	sub	a3,a3,a2
800033b0:	40f507b3          	sub	a5,a0,a5
800033b4:	00f53533          	sltu	a0,a0,a5
800033b8:	40d585b3          	sub	a1,a1,a3
800033bc:	40a585b3          	sub	a1,a1,a0
800033c0:	011598b3          	sll	a7,a1,a7
800033c4:	00e7d7b3          	srl	a5,a5,a4
800033c8:	00f8e533          	or	a0,a7,a5
800033cc:	00e5d5b3          	srl	a1,a1,a4
800033d0:	ce9ff06f          	j	800030b8 <__moddi3+0x10c>

800033d4 <__udivdi3>:
800033d4:	00050893          	mv	a7,a0
800033d8:	00058313          	mv	t1,a1
800033dc:	00060713          	mv	a4,a2
800033e0:	00050813          	mv	a6,a0
800033e4:	00058793          	mv	a5,a1
800033e8:	28069263          	bnez	a3,8000366c <__udivdi3+0x298>
800033ec:	800055b7          	lui	a1,0x80005
800033f0:	a7858593          	addi	a1,a1,-1416 # 80004a78 <__clz_tab>
800033f4:	0ec37663          	bgeu	t1,a2,800034e0 <__udivdi3+0x10c>
800033f8:	000106b7          	lui	a3,0x10
800033fc:	0cd67863          	bgeu	a2,a3,800034cc <__udivdi3+0xf8>
80003400:	10063693          	sltiu	a3,a2,256
80003404:	0016b693          	seqz	a3,a3
80003408:	00369693          	slli	a3,a3,0x3
8000340c:	00d65533          	srl	a0,a2,a3
80003410:	00a585b3          	add	a1,a1,a0
80003414:	0005c583          	lbu	a1,0(a1)
80003418:	02000513          	li	a0,32
8000341c:	00d586b3          	add	a3,a1,a3
80003420:	40d505b3          	sub	a1,a0,a3
80003424:	00d50c63          	beq	a0,a3,8000343c <__udivdi3+0x68>
80003428:	00b317b3          	sll	a5,t1,a1
8000342c:	00d8d6b3          	srl	a3,a7,a3
80003430:	00b61733          	sll	a4,a2,a1
80003434:	00f6e7b3          	or	a5,a3,a5
80003438:	00b89833          	sll	a6,a7,a1
8000343c:	01075593          	srli	a1,a4,0x10
80003440:	02b7d333          	divu	t1,a5,a1
80003444:	01071613          	slli	a2,a4,0x10
80003448:	01065613          	srli	a2,a2,0x10
8000344c:	02b7f7b3          	remu	a5,a5,a1
80003450:	00030513          	mv	a0,t1
80003454:	026608b3          	mul	a7,a2,t1
80003458:	01079693          	slli	a3,a5,0x10
8000345c:	01085793          	srli	a5,a6,0x10
80003460:	00d7e7b3          	or	a5,a5,a3
80003464:	0117fe63          	bgeu	a5,a7,80003480 <__udivdi3+0xac>
80003468:	00f707b3          	add	a5,a4,a5
8000346c:	fff30513          	addi	a0,t1,-1 # ffffff <buflen.1+0xffffbf>
80003470:	00e7e863          	bltu	a5,a4,80003480 <__udivdi3+0xac>
80003474:	0117f663          	bgeu	a5,a7,80003480 <__udivdi3+0xac>
80003478:	ffe30513          	addi	a0,t1,-2
8000347c:	00e787b3          	add	a5,a5,a4
80003480:	411787b3          	sub	a5,a5,a7
80003484:	02b7d8b3          	divu	a7,a5,a1
80003488:	01081813          	slli	a6,a6,0x10
8000348c:	01085813          	srli	a6,a6,0x10
80003490:	02b7f7b3          	remu	a5,a5,a1
80003494:	031606b3          	mul	a3,a2,a7
80003498:	01079793          	slli	a5,a5,0x10
8000349c:	00f86833          	or	a6,a6,a5
800034a0:	00088793          	mv	a5,a7
800034a4:	00d87c63          	bgeu	a6,a3,800034bc <__udivdi3+0xe8>
800034a8:	01070833          	add	a6,a4,a6
800034ac:	fff88793          	addi	a5,a7,-1 # ffffff <buflen.1+0xffffbf>
800034b0:	00e86663          	bltu	a6,a4,800034bc <__udivdi3+0xe8>
800034b4:	00d87463          	bgeu	a6,a3,800034bc <__udivdi3+0xe8>
800034b8:	ffe88793          	addi	a5,a7,-2
800034bc:	01051513          	slli	a0,a0,0x10
800034c0:	00f56533          	or	a0,a0,a5
800034c4:	00000593          	li	a1,0
800034c8:	00008067          	ret
800034cc:	01000537          	lui	a0,0x1000
800034d0:	01800693          	li	a3,24
800034d4:	f2a67ce3          	bgeu	a2,a0,8000340c <__udivdi3+0x38>
800034d8:	01000693          	li	a3,16
800034dc:	f31ff06f          	j	8000340c <__udivdi3+0x38>
800034e0:	00000693          	li	a3,0
800034e4:	00060c63          	beqz	a2,800034fc <__udivdi3+0x128>
800034e8:	000107b7          	lui	a5,0x10
800034ec:	0cf67063          	bgeu	a2,a5,800035ac <__udivdi3+0x1d8>
800034f0:	10063693          	sltiu	a3,a2,256
800034f4:	0016b693          	seqz	a3,a3
800034f8:	00369693          	slli	a3,a3,0x3
800034fc:	00d657b3          	srl	a5,a2,a3
80003500:	00f585b3          	add	a1,a1,a5
80003504:	0005c783          	lbu	a5,0(a1)
80003508:	00d787b3          	add	a5,a5,a3
8000350c:	02000693          	li	a3,32
80003510:	40f685b3          	sub	a1,a3,a5
80003514:	0af69663          	bne	a3,a5,800035c0 <__udivdi3+0x1ec>
80003518:	40c307b3          	sub	a5,t1,a2
8000351c:	00100593          	li	a1,1
80003520:	01075893          	srli	a7,a4,0x10
80003524:	0317de33          	divu	t3,a5,a7
80003528:	01071613          	slli	a2,a4,0x10
8000352c:	01065613          	srli	a2,a2,0x10
80003530:	01085693          	srli	a3,a6,0x10
80003534:	0317f7b3          	remu	a5,a5,a7
80003538:	000e0513          	mv	a0,t3
8000353c:	03c60333          	mul	t1,a2,t3
80003540:	01079793          	slli	a5,a5,0x10
80003544:	00f6e7b3          	or	a5,a3,a5
80003548:	0067fe63          	bgeu	a5,t1,80003564 <__udivdi3+0x190>
8000354c:	00f707b3          	add	a5,a4,a5
80003550:	fffe0513          	addi	a0,t3,-1
80003554:	00e7e863          	bltu	a5,a4,80003564 <__udivdi3+0x190>
80003558:	0067f663          	bgeu	a5,t1,80003564 <__udivdi3+0x190>
8000355c:	ffee0513          	addi	a0,t3,-2
80003560:	00e787b3          	add	a5,a5,a4
80003564:	406787b3          	sub	a5,a5,t1
80003568:	0317d333          	divu	t1,a5,a7
8000356c:	01081813          	slli	a6,a6,0x10
80003570:	01085813          	srli	a6,a6,0x10
80003574:	0317f7b3          	remu	a5,a5,a7
80003578:	026606b3          	mul	a3,a2,t1
8000357c:	01079793          	slli	a5,a5,0x10
80003580:	00f86833          	or	a6,a6,a5
80003584:	00030793          	mv	a5,t1
80003588:	00d87c63          	bgeu	a6,a3,800035a0 <__udivdi3+0x1cc>
8000358c:	01070833          	add	a6,a4,a6
80003590:	fff30793          	addi	a5,t1,-1
80003594:	00e86663          	bltu	a6,a4,800035a0 <__udivdi3+0x1cc>
80003598:	00d87463          	bgeu	a6,a3,800035a0 <__udivdi3+0x1cc>
8000359c:	ffe30793          	addi	a5,t1,-2
800035a0:	01051513          	slli	a0,a0,0x10
800035a4:	00f56533          	or	a0,a0,a5
800035a8:	00008067          	ret
800035ac:	010007b7          	lui	a5,0x1000
800035b0:	01800693          	li	a3,24
800035b4:	f4f674e3          	bgeu	a2,a5,800034fc <__udivdi3+0x128>
800035b8:	01000693          	li	a3,16
800035bc:	f41ff06f          	j	800034fc <__udivdi3+0x128>
800035c0:	00b61733          	sll	a4,a2,a1
800035c4:	00f356b3          	srl	a3,t1,a5
800035c8:	01075513          	srli	a0,a4,0x10
800035cc:	00b31333          	sll	t1,t1,a1
800035d0:	00f8d7b3          	srl	a5,a7,a5
800035d4:	0067e7b3          	or	a5,a5,t1
800035d8:	02a6d333          	divu	t1,a3,a0
800035dc:	01071613          	slli	a2,a4,0x10
800035e0:	01065613          	srli	a2,a2,0x10
800035e4:	00b89833          	sll	a6,a7,a1
800035e8:	02a6f6b3          	remu	a3,a3,a0
800035ec:	026608b3          	mul	a7,a2,t1
800035f0:	01069593          	slli	a1,a3,0x10
800035f4:	0107d693          	srli	a3,a5,0x10
800035f8:	00b6e6b3          	or	a3,a3,a1
800035fc:	00030593          	mv	a1,t1
80003600:	0116fe63          	bgeu	a3,a7,8000361c <__udivdi3+0x248>
80003604:	00d706b3          	add	a3,a4,a3
80003608:	fff30593          	addi	a1,t1,-1
8000360c:	00e6e863          	bltu	a3,a4,8000361c <__udivdi3+0x248>
80003610:	0116f663          	bgeu	a3,a7,8000361c <__udivdi3+0x248>
80003614:	ffe30593          	addi	a1,t1,-2
80003618:	00e686b3          	add	a3,a3,a4
8000361c:	411686b3          	sub	a3,a3,a7
80003620:	02a6d8b3          	divu	a7,a3,a0
80003624:	01079793          	slli	a5,a5,0x10
80003628:	0107d793          	srli	a5,a5,0x10
8000362c:	02a6f6b3          	remu	a3,a3,a0
80003630:	03160633          	mul	a2,a2,a7
80003634:	01069693          	slli	a3,a3,0x10
80003638:	00d7e7b3          	or	a5,a5,a3
8000363c:	00088693          	mv	a3,a7
80003640:	00c7fe63          	bgeu	a5,a2,8000365c <__udivdi3+0x288>
80003644:	00f707b3          	add	a5,a4,a5
80003648:	fff88693          	addi	a3,a7,-1
8000364c:	00e7e863          	bltu	a5,a4,8000365c <__udivdi3+0x288>
80003650:	00c7f663          	bgeu	a5,a2,8000365c <__udivdi3+0x288>
80003654:	ffe88693          	addi	a3,a7,-2
80003658:	00e787b3          	add	a5,a5,a4
8000365c:	01059593          	slli	a1,a1,0x10
80003660:	40c787b3          	sub	a5,a5,a2
80003664:	00d5e5b3          	or	a1,a1,a3
80003668:	eb9ff06f          	j	80003520 <__udivdi3+0x14c>
8000366c:	18d5e663          	bltu	a1,a3,800037f8 <__udivdi3+0x424>
80003670:	000107b7          	lui	a5,0x10
80003674:	04f6f463          	bgeu	a3,a5,800036bc <__udivdi3+0x2e8>
80003678:	1006b713          	sltiu	a4,a3,256
8000367c:	00173713          	seqz	a4,a4
80003680:	00371713          	slli	a4,a4,0x3
80003684:	800057b7          	lui	a5,0x80005
80003688:	00e6d5b3          	srl	a1,a3,a4
8000368c:	a7878793          	addi	a5,a5,-1416 # 80004a78 <__clz_tab>
80003690:	00b787b3          	add	a5,a5,a1
80003694:	0007c783          	lbu	a5,0(a5)
80003698:	00e787b3          	add	a5,a5,a4
8000369c:	02000713          	li	a4,32
800036a0:	40f705b3          	sub	a1,a4,a5
800036a4:	02f71663          	bne	a4,a5,800036d0 <__udivdi3+0x2fc>
800036a8:	00100513          	li	a0,1
800036ac:	e066eee3          	bltu	a3,t1,800034c8 <__udivdi3+0xf4>
800036b0:	00c8b533          	sltu	a0,a7,a2
800036b4:	00153513          	seqz	a0,a0
800036b8:	00008067          	ret
800036bc:	010007b7          	lui	a5,0x1000
800036c0:	01800713          	li	a4,24
800036c4:	fcf6f0e3          	bgeu	a3,a5,80003684 <__udivdi3+0x2b0>
800036c8:	01000713          	li	a4,16
800036cc:	fb9ff06f          	j	80003684 <__udivdi3+0x2b0>
800036d0:	00f65733          	srl	a4,a2,a5
800036d4:	00b696b3          	sll	a3,a3,a1
800036d8:	00d766b3          	or	a3,a4,a3
800036dc:	00f35733          	srl	a4,t1,a5
800036e0:	00b31333          	sll	t1,t1,a1
800036e4:	00f8d7b3          	srl	a5,a7,a5
800036e8:	0067e7b3          	or	a5,a5,t1
800036ec:	0106d313          	srli	t1,a3,0x10
800036f0:	02675eb3          	divu	t4,a4,t1
800036f4:	01069813          	slli	a6,a3,0x10
800036f8:	01085813          	srli	a6,a6,0x10
800036fc:	00b61633          	sll	a2,a2,a1
80003700:	02677733          	remu	a4,a4,t1
80003704:	03d80e33          	mul	t3,a6,t4
80003708:	01071513          	slli	a0,a4,0x10
8000370c:	0107d713          	srli	a4,a5,0x10
80003710:	00a76733          	or	a4,a4,a0
80003714:	000e8513          	mv	a0,t4
80003718:	01c77e63          	bgeu	a4,t3,80003734 <__udivdi3+0x360>
8000371c:	00e68733          	add	a4,a3,a4
80003720:	fffe8513          	addi	a0,t4,-1
80003724:	00d76863          	bltu	a4,a3,80003734 <__udivdi3+0x360>
80003728:	01c77663          	bgeu	a4,t3,80003734 <__udivdi3+0x360>
8000372c:	ffee8513          	addi	a0,t4,-2
80003730:	00d70733          	add	a4,a4,a3
80003734:	41c70733          	sub	a4,a4,t3
80003738:	02675e33          	divu	t3,a4,t1
8000373c:	01079793          	slli	a5,a5,0x10
80003740:	0107d793          	srli	a5,a5,0x10
80003744:	02677733          	remu	a4,a4,t1
80003748:	03c80833          	mul	a6,a6,t3
8000374c:	01071713          	slli	a4,a4,0x10
80003750:	00e7e7b3          	or	a5,a5,a4
80003754:	000e0713          	mv	a4,t3
80003758:	0107fe63          	bgeu	a5,a6,80003774 <__udivdi3+0x3a0>
8000375c:	00f687b3          	add	a5,a3,a5
80003760:	fffe0713          	addi	a4,t3,-1
80003764:	00d7e863          	bltu	a5,a3,80003774 <__udivdi3+0x3a0>
80003768:	0107f663          	bgeu	a5,a6,80003774 <__udivdi3+0x3a0>
8000376c:	ffee0713          	addi	a4,t3,-2
80003770:	00d787b3          	add	a5,a5,a3
80003774:	01051513          	slli	a0,a0,0x10
80003778:	00010e37          	lui	t3,0x10
8000377c:	00e56533          	or	a0,a0,a4
80003780:	fffe0693          	addi	a3,t3,-1 # ffff <buflen.1+0xffbf>
80003784:	00d57733          	and	a4,a0,a3
80003788:	410787b3          	sub	a5,a5,a6
8000378c:	00d676b3          	and	a3,a2,a3
80003790:	01055813          	srli	a6,a0,0x10
80003794:	01065613          	srli	a2,a2,0x10
80003798:	02d70333          	mul	t1,a4,a3
8000379c:	02d806b3          	mul	a3,a6,a3
800037a0:	02c70733          	mul	a4,a4,a2
800037a4:	02c80833          	mul	a6,a6,a2
800037a8:	00d70633          	add	a2,a4,a3
800037ac:	01035713          	srli	a4,t1,0x10
800037b0:	00c70733          	add	a4,a4,a2
800037b4:	00d77463          	bgeu	a4,a3,800037bc <__udivdi3+0x3e8>
800037b8:	01c80833          	add	a6,a6,t3
800037bc:	01075693          	srli	a3,a4,0x10
800037c0:	010686b3          	add	a3,a3,a6
800037c4:	02d7e663          	bltu	a5,a3,800037f0 <__udivdi3+0x41c>
800037c8:	ced79ee3          	bne	a5,a3,800034c4 <__udivdi3+0xf0>
800037cc:	000107b7          	lui	a5,0x10
800037d0:	fff78793          	addi	a5,a5,-1 # ffff <buflen.1+0xffbf>
800037d4:	00f77733          	and	a4,a4,a5
800037d8:	01071713          	slli	a4,a4,0x10
800037dc:	00f37333          	and	t1,t1,a5
800037e0:	00b898b3          	sll	a7,a7,a1
800037e4:	00670733          	add	a4,a4,t1
800037e8:	00000593          	li	a1,0
800037ec:	cce8fee3          	bgeu	a7,a4,800034c8 <__udivdi3+0xf4>
800037f0:	fff50513          	addi	a0,a0,-1 # ffffff <buflen.1+0xffffbf>
800037f4:	cd1ff06f          	j	800034c4 <__udivdi3+0xf0>
800037f8:	00000593          	li	a1,0
800037fc:	00000513          	li	a0,0
80003800:	00008067          	ret

80003804 <__umoddi3>:
80003804:	00060813          	mv	a6,a2
80003808:	00050793          	mv	a5,a0
8000380c:	00058713          	mv	a4,a1
80003810:	20069663          	bnez	a3,80003a1c <__umoddi3+0x218>
80003814:	800058b7          	lui	a7,0x80005
80003818:	a7888893          	addi	a7,a7,-1416 # 80004a78 <__clz_tab>
8000381c:	0cc5fc63          	bgeu	a1,a2,800038f4 <__umoddi3+0xf0>
80003820:	000106b7          	lui	a3,0x10
80003824:	0ad67e63          	bgeu	a2,a3,800038e0 <__umoddi3+0xdc>
80003828:	10063693          	sltiu	a3,a2,256
8000382c:	0016b693          	seqz	a3,a3
80003830:	00369693          	slli	a3,a3,0x3
80003834:	00d65333          	srl	t1,a2,a3
80003838:	006888b3          	add	a7,a7,t1
8000383c:	0008c883          	lbu	a7,0(a7)
80003840:	02000313          	li	t1,32
80003844:	00d886b3          	add	a3,a7,a3
80003848:	40d308b3          	sub	a7,t1,a3
8000384c:	00d30c63          	beq	t1,a3,80003864 <__umoddi3+0x60>
80003850:	01159733          	sll	a4,a1,a7
80003854:	00d556b3          	srl	a3,a0,a3
80003858:	01161833          	sll	a6,a2,a7
8000385c:	00e6e733          	or	a4,a3,a4
80003860:	011517b3          	sll	a5,a0,a7
80003864:	01085613          	srli	a2,a6,0x10
80003868:	02c756b3          	divu	a3,a4,a2
8000386c:	01081513          	slli	a0,a6,0x10
80003870:	01055513          	srli	a0,a0,0x10
80003874:	02c77733          	remu	a4,a4,a2
80003878:	02a686b3          	mul	a3,a3,a0
8000387c:	01071593          	slli	a1,a4,0x10
80003880:	0107d713          	srli	a4,a5,0x10
80003884:	00b76733          	or	a4,a4,a1
80003888:	00d77a63          	bgeu	a4,a3,8000389c <__umoddi3+0x98>
8000388c:	00e80733          	add	a4,a6,a4
80003890:	01076663          	bltu	a4,a6,8000389c <__umoddi3+0x98>
80003894:	00d77463          	bgeu	a4,a3,8000389c <__umoddi3+0x98>
80003898:	01070733          	add	a4,a4,a6
8000389c:	40d70733          	sub	a4,a4,a3
800038a0:	02c756b3          	divu	a3,a4,a2
800038a4:	02c77733          	remu	a4,a4,a2
800038a8:	02a686b3          	mul	a3,a3,a0
800038ac:	01079793          	slli	a5,a5,0x10
800038b0:	01071713          	slli	a4,a4,0x10
800038b4:	0107d793          	srli	a5,a5,0x10
800038b8:	00e7e7b3          	or	a5,a5,a4
800038bc:	00d7fa63          	bgeu	a5,a3,800038d0 <__umoddi3+0xcc>
800038c0:	00f807b3          	add	a5,a6,a5
800038c4:	0107e663          	bltu	a5,a6,800038d0 <__umoddi3+0xcc>
800038c8:	00d7f463          	bgeu	a5,a3,800038d0 <__umoddi3+0xcc>
800038cc:	010787b3          	add	a5,a5,a6
800038d0:	40d787b3          	sub	a5,a5,a3
800038d4:	0117d533          	srl	a0,a5,a7
800038d8:	00000593          	li	a1,0
800038dc:	00008067          	ret
800038e0:	01000337          	lui	t1,0x1000
800038e4:	01800693          	li	a3,24
800038e8:	f46676e3          	bgeu	a2,t1,80003834 <__umoddi3+0x30>
800038ec:	01000693          	li	a3,16
800038f0:	f45ff06f          	j	80003834 <__umoddi3+0x30>
800038f4:	00000693          	li	a3,0
800038f8:	00060c63          	beqz	a2,80003910 <__umoddi3+0x10c>
800038fc:	00010737          	lui	a4,0x10
80003900:	06e67e63          	bgeu	a2,a4,8000397c <__umoddi3+0x178>
80003904:	10063693          	sltiu	a3,a2,256
80003908:	0016b693          	seqz	a3,a3
8000390c:	00369693          	slli	a3,a3,0x3
80003910:	00d65733          	srl	a4,a2,a3
80003914:	00e888b3          	add	a7,a7,a4
80003918:	0008c703          	lbu	a4,0(a7)
8000391c:	00d70733          	add	a4,a4,a3
80003920:	02000693          	li	a3,32
80003924:	40e688b3          	sub	a7,a3,a4
80003928:	06e69463          	bne	a3,a4,80003990 <__umoddi3+0x18c>
8000392c:	40c58733          	sub	a4,a1,a2
80003930:	01085593          	srli	a1,a6,0x10
80003934:	02b75633          	divu	a2,a4,a1
80003938:	01081513          	slli	a0,a6,0x10
8000393c:	01055513          	srli	a0,a0,0x10
80003940:	0107d693          	srli	a3,a5,0x10
80003944:	02b77733          	remu	a4,a4,a1
80003948:	02a60633          	mul	a2,a2,a0
8000394c:	01071713          	slli	a4,a4,0x10
80003950:	00e6e733          	or	a4,a3,a4
80003954:	00c77a63          	bgeu	a4,a2,80003968 <__umoddi3+0x164>
80003958:	00e80733          	add	a4,a6,a4
8000395c:	01076663          	bltu	a4,a6,80003968 <__umoddi3+0x164>
80003960:	00c77463          	bgeu	a4,a2,80003968 <__umoddi3+0x164>
80003964:	01070733          	add	a4,a4,a6
80003968:	40c70733          	sub	a4,a4,a2
8000396c:	02b756b3          	divu	a3,a4,a1
80003970:	02b77733          	remu	a4,a4,a1
80003974:	02a686b3          	mul	a3,a3,a0
80003978:	f35ff06f          	j	800038ac <__umoddi3+0xa8>
8000397c:	01000737          	lui	a4,0x1000
80003980:	01800693          	li	a3,24
80003984:	f8e676e3          	bgeu	a2,a4,80003910 <__umoddi3+0x10c>
80003988:	01000693          	li	a3,16
8000398c:	f85ff06f          	j	80003910 <__umoddi3+0x10c>
80003990:	01161833          	sll	a6,a2,a7
80003994:	00e5d6b3          	srl	a3,a1,a4
80003998:	011517b3          	sll	a5,a0,a7
8000399c:	011595b3          	sll	a1,a1,a7
800039a0:	00e55733          	srl	a4,a0,a4
800039a4:	01085513          	srli	a0,a6,0x10
800039a8:	00b76733          	or	a4,a4,a1
800039ac:	02a6d5b3          	divu	a1,a3,a0
800039b0:	01081313          	slli	t1,a6,0x10
800039b4:	01035313          	srli	t1,t1,0x10
800039b8:	02a6f6b3          	remu	a3,a3,a0
800039bc:	026585b3          	mul	a1,a1,t1
800039c0:	01069613          	slli	a2,a3,0x10
800039c4:	01075693          	srli	a3,a4,0x10
800039c8:	00c6e6b3          	or	a3,a3,a2
800039cc:	00b6fa63          	bgeu	a3,a1,800039e0 <__umoddi3+0x1dc>
800039d0:	00d806b3          	add	a3,a6,a3
800039d4:	0106e663          	bltu	a3,a6,800039e0 <__umoddi3+0x1dc>
800039d8:	00b6f463          	bgeu	a3,a1,800039e0 <__umoddi3+0x1dc>
800039dc:	010686b3          	add	a3,a3,a6
800039e0:	40b686b3          	sub	a3,a3,a1
800039e4:	02a6d633          	divu	a2,a3,a0
800039e8:	01071713          	slli	a4,a4,0x10
800039ec:	01075713          	srli	a4,a4,0x10
800039f0:	02a6f6b3          	remu	a3,a3,a0
800039f4:	02660633          	mul	a2,a2,t1
800039f8:	01069693          	slli	a3,a3,0x10
800039fc:	00d76733          	or	a4,a4,a3
80003a00:	00c77a63          	bgeu	a4,a2,80003a14 <__umoddi3+0x210>
80003a04:	00e80733          	add	a4,a6,a4
80003a08:	01076663          	bltu	a4,a6,80003a14 <__umoddi3+0x210>
80003a0c:	00c77463          	bgeu	a4,a2,80003a14 <__umoddi3+0x210>
80003a10:	01070733          	add	a4,a4,a6
80003a14:	40c70733          	sub	a4,a4,a2
80003a18:	f19ff06f          	j	80003930 <__umoddi3+0x12c>
80003a1c:	1cd5e463          	bltu	a1,a3,80003be4 <__umoddi3+0x3e0>
80003a20:	00010837          	lui	a6,0x10
80003a24:	0506fe63          	bgeu	a3,a6,80003a80 <__umoddi3+0x27c>
80003a28:	1006b813          	sltiu	a6,a3,256
80003a2c:	00183813          	seqz	a6,a6
80003a30:	00381813          	slli	a6,a6,0x3
80003a34:	800058b7          	lui	a7,0x80005
80003a38:	0106d333          	srl	t1,a3,a6
80003a3c:	a7888893          	addi	a7,a7,-1416 # 80004a78 <__clz_tab>
80003a40:	006888b3          	add	a7,a7,t1
80003a44:	0008c883          	lbu	a7,0(a7)
80003a48:	02000313          	li	t1,32
80003a4c:	010888b3          	add	a7,a7,a6
80003a50:	41130833          	sub	a6,t1,a7
80003a54:	05131063          	bne	t1,a7,80003a94 <__umoddi3+0x290>
80003a58:	00b6e463          	bltu	a3,a1,80003a60 <__umoddi3+0x25c>
80003a5c:	00c56c63          	bltu	a0,a2,80003a74 <__umoddi3+0x270>
80003a60:	40c50633          	sub	a2,a0,a2
80003a64:	40d586b3          	sub	a3,a1,a3
80003a68:	00c53733          	sltu	a4,a0,a2
80003a6c:	00060793          	mv	a5,a2
80003a70:	40e68733          	sub	a4,a3,a4
80003a74:	00078513          	mv	a0,a5
80003a78:	00070593          	mv	a1,a4
80003a7c:	00008067          	ret
80003a80:	010008b7          	lui	a7,0x1000
80003a84:	01800813          	li	a6,24
80003a88:	fb16f6e3          	bgeu	a3,a7,80003a34 <__umoddi3+0x230>
80003a8c:	01000813          	li	a6,16
80003a90:	fa5ff06f          	j	80003a34 <__umoddi3+0x230>
80003a94:	011657b3          	srl	a5,a2,a7
80003a98:	010696b3          	sll	a3,a3,a6
80003a9c:	00d7e6b3          	or	a3,a5,a3
80003aa0:	0115d733          	srl	a4,a1,a7
80003aa4:	0106de13          	srli	t3,a3,0x10
80003aa8:	03c75f33          	divu	t5,a4,t3
80003aac:	01069313          	slli	t1,a3,0x10
80003ab0:	01035313          	srli	t1,t1,0x10
80003ab4:	010597b3          	sll	a5,a1,a6
80003ab8:	011555b3          	srl	a1,a0,a7
80003abc:	00f5e5b3          	or	a1,a1,a5
80003ac0:	0105d793          	srli	a5,a1,0x10
80003ac4:	01061633          	sll	a2,a2,a6
80003ac8:	01051533          	sll	a0,a0,a6
80003acc:	03c77733          	remu	a4,a4,t3
80003ad0:	03e30eb3          	mul	t4,t1,t5
80003ad4:	01071713          	slli	a4,a4,0x10
80003ad8:	00e7e7b3          	or	a5,a5,a4
80003adc:	000f0713          	mv	a4,t5
80003ae0:	01d7fe63          	bgeu	a5,t4,80003afc <__umoddi3+0x2f8>
80003ae4:	00f687b3          	add	a5,a3,a5
80003ae8:	ffff0713          	addi	a4,t5,-1
80003aec:	00d7e863          	bltu	a5,a3,80003afc <__umoddi3+0x2f8>
80003af0:	01d7f663          	bgeu	a5,t4,80003afc <__umoddi3+0x2f8>
80003af4:	ffef0713          	addi	a4,t5,-2
80003af8:	00d787b3          	add	a5,a5,a3
80003afc:	41d787b3          	sub	a5,a5,t4
80003b00:	03c7deb3          	divu	t4,a5,t3
80003b04:	01059593          	slli	a1,a1,0x10
80003b08:	0105d593          	srli	a1,a1,0x10
80003b0c:	03c7f7b3          	remu	a5,a5,t3
80003b10:	000e8e13          	mv	t3,t4
80003b14:	03d30333          	mul	t1,t1,t4
80003b18:	01079793          	slli	a5,a5,0x10
80003b1c:	00f5e5b3          	or	a1,a1,a5
80003b20:	0065fe63          	bgeu	a1,t1,80003b3c <__umoddi3+0x338>
80003b24:	00b685b3          	add	a1,a3,a1
80003b28:	fffe8e13          	addi	t3,t4,-1
80003b2c:	00d5e863          	bltu	a1,a3,80003b3c <__umoddi3+0x338>
80003b30:	0065f663          	bgeu	a1,t1,80003b3c <__umoddi3+0x338>
80003b34:	ffee8e13          	addi	t3,t4,-2
80003b38:	00d585b3          	add	a1,a1,a3
80003b3c:	01071793          	slli	a5,a4,0x10
80003b40:	00010f37          	lui	t5,0x10
80003b44:	01c7e7b3          	or	a5,a5,t3
80003b48:	406585b3          	sub	a1,a1,t1
80003b4c:	ffff0313          	addi	t1,t5,-1 # ffff <buflen.1+0xffbf>
80003b50:	0067f733          	and	a4,a5,t1
80003b54:	01065e13          	srli	t3,a2,0x10
80003b58:	0107d793          	srli	a5,a5,0x10
80003b5c:	00667333          	and	t1,a2,t1
80003b60:	02670eb3          	mul	t4,a4,t1
80003b64:	02678333          	mul	t1,a5,t1
80003b68:	03c70733          	mul	a4,a4,t3
80003b6c:	03c787b3          	mul	a5,a5,t3
80003b70:	00670e33          	add	t3,a4,t1
80003b74:	010ed713          	srli	a4,t4,0x10
80003b78:	01c70733          	add	a4,a4,t3
80003b7c:	00677463          	bgeu	a4,t1,80003b84 <__umoddi3+0x380>
80003b80:	01e787b3          	add	a5,a5,t5
80003b84:	01075313          	srli	t1,a4,0x10
80003b88:	00f307b3          	add	a5,t1,a5
80003b8c:	00010337          	lui	t1,0x10
80003b90:	fff30313          	addi	t1,t1,-1 # ffff <buflen.1+0xffbf>
80003b94:	00677733          	and	a4,a4,t1
80003b98:	01071713          	slli	a4,a4,0x10
80003b9c:	006efeb3          	and	t4,t4,t1
80003ba0:	01d70733          	add	a4,a4,t4
80003ba4:	00f5e663          	bltu	a1,a5,80003bb0 <__umoddi3+0x3ac>
80003ba8:	00f59e63          	bne	a1,a5,80003bc4 <__umoddi3+0x3c0>
80003bac:	00e57c63          	bgeu	a0,a4,80003bc4 <__umoddi3+0x3c0>
80003bb0:	40c70633          	sub	a2,a4,a2
80003bb4:	00c73333          	sltu	t1,a4,a2
80003bb8:	00d306b3          	add	a3,t1,a3
80003bbc:	00060713          	mv	a4,a2
80003bc0:	40d787b3          	sub	a5,a5,a3
80003bc4:	40e50733          	sub	a4,a0,a4
80003bc8:	00e53533          	sltu	a0,a0,a4
80003bcc:	40f585b3          	sub	a1,a1,a5
80003bd0:	40a585b3          	sub	a1,a1,a0
80003bd4:	011598b3          	sll	a7,a1,a7
80003bd8:	01075733          	srl	a4,a4,a6
80003bdc:	00e8e533          	or	a0,a7,a4
80003be0:	0105d5b3          	srl	a1,a1,a6
80003be4:	00008067          	ret

Disassembly of section .text.startup:

80003be8 <main>:
80003be8:	f6010113          	addi	sp,sp,-160
80003bec:	08112e23          	sw	ra,156(sp)
80003bf0:	08812c23          	sw	s0,152(sp)
80003bf4:	08912a23          	sw	s1,148(sp)
80003bf8:	0a010413          	addi	s0,sp,160
80003bfc:	09212823          	sw	s2,144(sp)
80003c00:	09312623          	sw	s3,140(sp)
80003c04:	09412423          	sw	s4,136(sp)
80003c08:	09512223          	sw	s5,132(sp)
80003c0c:	09612023          	sw	s6,128(sp)
80003c10:	07712e23          	sw	s7,124(sp)
80003c14:	07812c23          	sw	s8,120(sp)
80003c18:	07912a23          	sw	s9,116(sp)
80003c1c:	07a12823          	sw	s10,112(sp)
80003c20:	07b12623          	sw	s11,108(sp)
80003c24:	800047b7          	lui	a5,0x80004
80003c28:	33078793          	addi	a5,a5,816 # 80004330 <main+0x748>
80003c2c:	fc010113          	addi	sp,sp,-64
80003c30:	0007a283          	lw	t0,0(a5)
80003c34:	00f10693          	addi	a3,sp,15
80003c38:	fc010113          	addi	sp,sp,-64
80003c3c:	0047af03          	lw	t5,4(a5)
80003c40:	0087ae83          	lw	t4,8(a5)
80003c44:	00c7ae03          	lw	t3,12(a5)
80003c48:	0107a303          	lw	t1,16(a5)
80003c4c:	0147a883          	lw	a7,20(a5)
80003c50:	0187a803          	lw	a6,24(a5)
80003c54:	01c7d583          	lhu	a1,28(a5)
80003c58:	01e7c603          	lbu	a2,30(a5)
80003c5c:	80005737          	lui	a4,0x80005
80003c60:	00f10793          	addi	a5,sp,15
80003c64:	ff07f793          	andi	a5,a5,-16
80003c68:	88070713          	addi	a4,a4,-1920 # 80004880 <main+0xc98>
80003c6c:	00072f83          	lw	t6,0(a4)
80003c70:	ff06f693          	andi	a3,a3,-16
80003c74:	0057a823          	sw	t0,16(a5)
80003c78:	00200393          	li	t2,2
80003c7c:	82d1a423          	sw	a3,-2008(gp) # 80004bf0 <Next_Ptr_Glob>
80003c80:	00d7a023          	sw	a3,0(a5)
80003c84:	0077a423          	sw	t2,8(a5)
80003c88:	02800393          	li	t2,40
80003c8c:	00472503          	lw	a0,4(a4)
80003c90:	0077a623          	sw	t2,12(a5)
80003c94:	82f1a623          	sw	a5,-2004(gp) # 80004bf4 <Ptr_Glob>
80003c98:	0007a223          	sw	zero,4(a5)
80003c9c:	f9f42023          	sw	t6,-128(s0)
80003ca0:	01e7aa23          	sw	t5,20(a5)
80003ca4:	01d7ac23          	sw	t4,24(a5)
80003ca8:	01c7ae23          	sw	t3,28(a5)
80003cac:	0267a023          	sw	t1,32(a5)
80003cb0:	0317a223          	sw	a7,36(a5)
80003cb4:	0307a423          	sw	a6,40(a5)
80003cb8:	02b79623          	sh	a1,44(a5)
80003cbc:	02c78723          	sb	a2,46(a5)
80003cc0:	01e74783          	lbu	a5,30(a4)
80003cc4:	00872303          	lw	t1,8(a4)
80003cc8:	00c72883          	lw	a7,12(a4)
80003ccc:	01072803          	lw	a6,16(a4)
80003cd0:	01472583          	lw	a1,20(a4)
80003cd4:	01872603          	lw	a2,24(a4)
80003cd8:	01c75683          	lhu	a3,28(a4)
80003cdc:	80004737          	lui	a4,0x80004
80003ce0:	f8a42223          	sw	a0,-124(s0)
80003ce4:	35470513          	addi	a0,a4,852 # 80004354 <main+0x76c>
80003ce8:	80005737          	lui	a4,0x80005
80003cec:	cd070713          	addi	a4,a4,-816 # 80004cd0 <Arr_2_Glob>
80003cf0:	f8f40f23          	sb	a5,-98(s0)
80003cf4:	00a00793          	li	a5,10
80003cf8:	64f72e23          	sw	a5,1628(a4)
80003cfc:	f8642423          	sw	t1,-120(s0)
80003d00:	f9142623          	sw	a7,-116(s0)
80003d04:	f9042823          	sw	a6,-112(s0)
80003d08:	f8b42a23          	sw	a1,-108(s0)
80003d0c:	f8c42c23          	sw	a2,-104(s0)
80003d10:	f8d41e23          	sh	a3,-100(s0)
80003d14:	ca4fe0ef          	jal	800021b8 <debug_printf>
80003d18:	800045b7          	lui	a1,0x80004
80003d1c:	80004537          	lui	a0,0x80004
80003d20:	35858593          	addi	a1,a1,856 # 80004358 <main+0x770>
80003d24:	36850513          	addi	a0,a0,872 # 80004368 <main+0x780>
80003d28:	c90fe0ef          	jal	800021b8 <debug_printf>
80003d2c:	8181a783          	lw	a5,-2024(gp) # 80004be0 <Reg>
80003d30:	5c078663          	beqz	a5,800042fc <main+0x714>
80003d34:	80004537          	lui	a0,0x80004
80003d38:	38c50513          	addi	a0,a0,908 # 8000438c <main+0x7a4>
80003d3c:	c7cfe0ef          	jal	800021b8 <debug_printf>
80003d40:	000f4637          	lui	a2,0xf4
80003d44:	800045b7          	lui	a1,0x80004
80003d48:	80004537          	lui	a0,0x80004
80003d4c:	24060613          	addi	a2,a2,576 # f4240 <buflen.1+0xf4200>
80003d50:	3e858593          	addi	a1,a1,1000 # 800043e8 <main+0x800>
80003d54:	3f450513          	addi	a0,a0,1012 # 800043f4 <main+0x80c>
80003d58:	c60fe0ef          	jal	800021b8 <debug_printf>
80003d5c:	800047b7          	lui	a5,0x80004
80003d60:	35478513          	addi	a0,a5,852 # 80004354 <main+0x76c>
80003d64:	c54fe0ef          	jal	800021b8 <debug_printf>
80003d68:	8001aa23          	sw	zero,-2028(gp) # 80004bdc <Done>
80003d6c:	80005937          	lui	s2,0x80005
80003d70:	1f400793          	li	a5,500
80003d74:	80005837          	lui	a6,0x80005
80003d78:	f6f42623          	sw	a5,-148(s0)
80003d7c:	8a090913          	addi	s2,s2,-1888 # 800048a0 <main+0xcb8>
80003d80:	8c080d13          	addi	s10,a6,-1856 # 800048c0 <main+0xcd8>
80003d84:	f6c42a83          	lw	s5,-148(s0)
80003d88:	80004737          	lui	a4,0x80004
80003d8c:	40870513          	addi	a0,a4,1032 # 80004408 <main+0x820>
80003d90:	000a8593          	mv	a1,s5
80003d94:	c24fe0ef          	jal	800021b8 <debug_printf>
80003d98:	00100513          	li	a0,1
80003d9c:	c01fe0ef          	jal	8000299c <setStats>
80003da0:	b00027f3          	csrr	a5,mcycle
80003da4:	80f1a823          	sw	a5,-2032(gp) # 80004bd8 <Begin_Time>
80003da8:	19505a63          	blez	s5,80003f3c <main+0x354>
80003dac:	001a8c93          	addi	s9,s5,1
80003db0:	00100c13          	li	s8,1
80003db4:	00100a93          	li	s5,1
80003db8:	00700b93          	li	s7,7
80003dbc:	df0fe0ef          	jal	800023ac <Proc_5>
80003dc0:	dc8fe0ef          	jal	80002388 <Proc_4>
80003dc4:	00092e83          	lw	t4,0(s2)
80003dc8:	00492e03          	lw	t3,4(s2)
80003dcc:	00892303          	lw	t1,8(s2)
80003dd0:	00c92883          	lw	a7,12(s2)
80003dd4:	01092803          	lw	a6,16(s2)
80003dd8:	01892683          	lw	a3,24(s2)
80003ddc:	01492603          	lw	a2,20(s2)
80003de0:	01c95703          	lhu	a4,28(s2)
80003de4:	01e94783          	lbu	a5,30(s2)
80003de8:	fa040593          	addi	a1,s0,-96
80003dec:	f8040513          	addi	a0,s0,-128
80003df0:	fbd42023          	sw	t4,-96(s0)
80003df4:	fbc42223          	sw	t3,-92(s0)
80003df8:	fa642423          	sw	t1,-88(s0)
80003dfc:	fb142623          	sw	a7,-84(s0)
80003e00:	fb042823          	sw	a6,-80(s0)
80003e04:	fad42c23          	sw	a3,-72(s0)
80003e08:	fac42a23          	sw	a2,-76(s0)
80003e0c:	fae41e23          	sh	a4,-68(s0)
80003e10:	faf40f23          	sb	a5,-66(s0)
80003e14:	f7842e23          	sw	s8,-132(s0)
80003e18:	a7cfe0ef          	jal	80002094 <Func_2>
80003e1c:	00153793          	seqz	a5,a0
80003e20:	f7840613          	addi	a2,s0,-136
80003e24:	00300593          	li	a1,3
80003e28:	00200513          	li	a0,2
80003e2c:	82f1a023          	sw	a5,-2016(gp) # 80004be8 <Bool_Glob>
80003e30:	f7742c23          	sw	s7,-136(s0)
80003e34:	9ccfe0ef          	jal	80002000 <Proc_7>
80003e38:	f7842683          	lw	a3,-136(s0)
80003e3c:	800057b7          	lui	a5,0x80005
80003e40:	cd078593          	addi	a1,a5,-816 # 80004cd0 <Arr_2_Glob>
80003e44:	00300613          	li	a2,3
80003e48:	84018513          	addi	a0,gp,-1984 # 80004c08 <Arr_1_Glob>
80003e4c:	00300793          	li	a5,3
80003e50:	f6f42a23          	sw	a5,-140(s0)
80003e54:	9bcfe0ef          	jal	80002010 <Proc_8>
80003e58:	82c1a503          	lw	a0,-2004(gp) # 80004bf4 <Ptr_Glob>
80003e5c:	bd0fe0ef          	jal	8000222c <Proc_1>
80003e60:	81c1c783          	lbu	a5,-2020(gp) # 80004be4 <Ch_2_Glob>
80003e64:	04000713          	li	a4,64
80003e68:	44f77a63          	bgeu	a4,a5,800042bc <main+0x6d4>
80003e6c:	04100993          	li	s3,65
80003e70:	00300b13          	li	s6,3
80003e74:	0140006f          	j	80003e88 <main+0x2a0>
80003e78:	81c1c783          	lbu	a5,-2020(gp) # 80004be4 <Ch_2_Glob>
80003e7c:	00198993          	addi	s3,s3,1
80003e80:	0ff9f993          	zext.b	s3,s3
80003e84:	0937e263          	bltu	a5,s3,80003f08 <main+0x320>
80003e88:	04300593          	li	a1,67
80003e8c:	00098513          	mv	a0,s3
80003e90:	9e4fe0ef          	jal	80002074 <Func_1>
80003e94:	f7c42783          	lw	a5,-132(s0)
80003e98:	fef510e3          	bne	a0,a5,80003e78 <main+0x290>
80003e9c:	f7c40593          	addi	a1,s0,-132
80003ea0:	00000513          	li	a0,0
80003ea4:	a5cfe0ef          	jal	80002100 <Proc_6>
80003ea8:	01ed4783          	lbu	a5,30(s10)
80003eac:	000d2303          	lw	t1,0(s10)
80003eb0:	004d2883          	lw	a7,4(s10)
80003eb4:	008d2803          	lw	a6,8(s10)
80003eb8:	00cd2503          	lw	a0,12(s10)
80003ebc:	010d2583          	lw	a1,16(s10)
80003ec0:	014d2603          	lw	a2,20(s10)
80003ec4:	018d2683          	lw	a3,24(s10)
80003ec8:	01cd5703          	lhu	a4,28(s10)
80003ecc:	faf40f23          	sb	a5,-66(s0)
80003ed0:	81c1c783          	lbu	a5,-2020(gp) # 80004be4 <Ch_2_Glob>
80003ed4:	00198993          	addi	s3,s3,1
80003ed8:	fa642023          	sw	t1,-96(s0)
80003edc:	fb142223          	sw	a7,-92(s0)
80003ee0:	fb042423          	sw	a6,-88(s0)
80003ee4:	faa42623          	sw	a0,-84(s0)
80003ee8:	fab42823          	sw	a1,-80(s0)
80003eec:	fac42a23          	sw	a2,-76(s0)
80003ef0:	fad42c23          	sw	a3,-72(s0)
80003ef4:	fae41e23          	sh	a4,-68(s0)
80003ef8:	8351a223          	sw	s5,-2012(gp) # 80004bec <Int_Glob>
80003efc:	0ff9f993          	zext.b	s3,s3
80003f00:	000a8b13          	mv	s6,s5
80003f04:	f937f2e3          	bgeu	a5,s3,80003e88 <main+0x2a0>
80003f08:	001b1993          	slli	s3,s6,0x1
80003f0c:	016989b3          	add	s3,s3,s6
80003f10:	f7842b03          	lw	s6,-136(s0)
80003f14:	f7440513          	addi	a0,s0,-140
80003f18:	001a8a93          	addi	s5,s5,1
80003f1c:	0369cdb3          	div	s11,s3,s6
80003f20:	f7b42a23          	sw	s11,-140(s0)
80003f24:	abcfe0ef          	jal	800021e0 <Proc_2>
80003f28:	e95c9ae3          	bne	s9,s5,80003dbc <main+0x1d4>
80003f2c:	416989b3          	sub	s3,s3,s6
80003f30:	00399713          	slli	a4,s3,0x3
80003f34:	41370733          	sub	a4,a4,s3
80003f38:	41b709b3          	sub	s3,a4,s11
80003f3c:	b00027f3          	csrr	a5,mcycle
80003f40:	00000513          	li	a0,0
80003f44:	00070a93          	mv	s5,a4
80003f48:	80f1a623          	sw	a5,-2036(gp) # 80004bd4 <End_Time>
80003f4c:	a51fe0ef          	jal	8000299c <setStats>
80003f50:	8101a703          	lw	a4,-2032(gp) # 80004bd8 <Begin_Time>
80003f54:	80c1a783          	lw	a5,-2036(gp) # 80004bd4 <End_Time>
80003f58:	40e787b3          	sub	a5,a5,a4
80003f5c:	80f1a423          	sw	a5,-2040(gp) # 80004bd0 <User_Time>
80003f60:	36f05263          	blez	a5,800042c4 <main+0x6dc>
80003f64:	00100793          	li	a5,1
80003f68:	80f1aa23          	sw	a5,-2028(gp) # 80004bdc <Done>
80003f6c:	80004537          	lui	a0,0x80004
80003f70:	46450513          	addi	a0,a0,1124 # 80004464 <main+0x87c>
80003f74:	a44fe0ef          	jal	800021b8 <debug_printf>
80003f78:	80004d37          	lui	s10,0x80004
80003f7c:	354d0513          	addi	a0,s10,852 # 80004354 <main+0x76c>
80003f80:	a38fe0ef          	jal	800021b8 <debug_printf>
80003f84:	8241a583          	lw	a1,-2012(gp) # 80004bec <Int_Glob>
80003f88:	80004537          	lui	a0,0x80004
80003f8c:	49c50513          	addi	a0,a0,1180 # 8000449c <main+0x8b4>
80003f90:	80004937          	lui	s2,0x80004
80003f94:	a24fe0ef          	jal	800021b8 <debug_printf>
80003f98:	4b890513          	addi	a0,s2,1208 # 800044b8 <main+0x8d0>
80003f9c:	00500593          	li	a1,5
80003fa0:	a18fe0ef          	jal	800021b8 <debug_printf>
80003fa4:	8201a583          	lw	a1,-2016(gp) # 80004be8 <Bool_Glob>
80003fa8:	80004537          	lui	a0,0x80004
80003fac:	4d450513          	addi	a0,a0,1236 # 800044d4 <main+0x8ec>
80003fb0:	a08fe0ef          	jal	800021b8 <debug_printf>
80003fb4:	4b890513          	addi	a0,s2,1208
80003fb8:	00100593          	li	a1,1
80003fbc:	9fcfe0ef          	jal	800021b8 <debug_printf>
80003fc0:	81d1c583          	lbu	a1,-2019(gp) # 80004be5 <Ch_1_Glob>
80003fc4:	80004537          	lui	a0,0x80004
80003fc8:	4f050513          	addi	a0,a0,1264 # 800044f0 <main+0x908>
80003fcc:	9ecfe0ef          	jal	800021b8 <debug_printf>
80003fd0:	80004a37          	lui	s4,0x80004
80003fd4:	50ca0513          	addi	a0,s4,1292 # 8000450c <main+0x924>
80003fd8:	04100593          	li	a1,65
80003fdc:	9dcfe0ef          	jal	800021b8 <debug_printf>
80003fe0:	81c1c583          	lbu	a1,-2020(gp) # 80004be4 <Ch_2_Glob>
80003fe4:	80004537          	lui	a0,0x80004
80003fe8:	52850513          	addi	a0,a0,1320 # 80004528 <main+0x940>
80003fec:	9ccfe0ef          	jal	800021b8 <debug_printf>
80003ff0:	50ca0513          	addi	a0,s4,1292
80003ff4:	04200593          	li	a1,66
80003ff8:	9c0fe0ef          	jal	800021b8 <debug_printf>
80003ffc:	84018793          	addi	a5,gp,-1984 # 80004c08 <Arr_1_Glob>
80004000:	0207a583          	lw	a1,32(a5)
80004004:	80004537          	lui	a0,0x80004
80004008:	54450513          	addi	a0,a0,1348 # 80004544 <main+0x95c>
8000400c:	9acfe0ef          	jal	800021b8 <debug_printf>
80004010:	4b890513          	addi	a0,s2,1208
80004014:	00700593          	li	a1,7
80004018:	9a0fe0ef          	jal	800021b8 <debug_printf>
8000401c:	800057b7          	lui	a5,0x80005
80004020:	cd078793          	addi	a5,a5,-816 # 80004cd0 <Arr_2_Glob>
80004024:	65c7a583          	lw	a1,1628(a5)
80004028:	80004537          	lui	a0,0x80004
8000402c:	56050513          	addi	a0,a0,1376 # 80004560 <main+0x978>
80004030:	988fe0ef          	jal	800021b8 <debug_printf>
80004034:	80004537          	lui	a0,0x80004
80004038:	57c50513          	addi	a0,a0,1404 # 8000457c <main+0x994>
8000403c:	97cfe0ef          	jal	800021b8 <debug_printf>
80004040:	80004537          	lui	a0,0x80004
80004044:	5a850513          	addi	a0,a0,1448 # 800045a8 <main+0x9c0>
80004048:	970fe0ef          	jal	800021b8 <debug_printf>
8000404c:	82c1a783          	lw	a5,-2004(gp) # 80004bf4 <Ptr_Glob>
80004050:	80004c37          	lui	s8,0x80004
80004054:	5b4c0513          	addi	a0,s8,1460 # 800045b4 <main+0x9cc>
80004058:	0007a583          	lw	a1,0(a5)
8000405c:	80004bb7          	lui	s7,0x80004
80004060:	80004b37          	lui	s6,0x80004
80004064:	954fe0ef          	jal	800021b8 <debug_printf>
80004068:	80004537          	lui	a0,0x80004
8000406c:	5d050513          	addi	a0,a0,1488 # 800045d0 <main+0x9e8>
80004070:	948fe0ef          	jal	800021b8 <debug_printf>
80004074:	82c1a783          	lw	a5,-2004(gp) # 80004bf4 <Ptr_Glob>
80004078:	604b8513          	addi	a0,s7,1540 # 80004604 <main+0xa1c>
8000407c:	80004ab7          	lui	s5,0x80004
80004080:	0047a583          	lw	a1,4(a5)
80004084:	80004a37          	lui	s4,0x80004
80004088:	930fe0ef          	jal	800021b8 <debug_printf>
8000408c:	4b890513          	addi	a0,s2,1208
80004090:	00000593          	li	a1,0
80004094:	924fe0ef          	jal	800021b8 <debug_printf>
80004098:	82c1a783          	lw	a5,-2004(gp) # 80004bf4 <Ptr_Glob>
8000409c:	620b0513          	addi	a0,s6,1568 # 80004620 <main+0xa38>
800040a0:	0087a583          	lw	a1,8(a5)
800040a4:	914fe0ef          	jal	800021b8 <debug_printf>
800040a8:	4b890513          	addi	a0,s2,1208
800040ac:	00200593          	li	a1,2
800040b0:	908fe0ef          	jal	800021b8 <debug_printf>
800040b4:	82c1a783          	lw	a5,-2004(gp) # 80004bf4 <Ptr_Glob>
800040b8:	63ca8513          	addi	a0,s5,1596 # 8000463c <main+0xa54>
800040bc:	00c7a583          	lw	a1,12(a5)
800040c0:	8f8fe0ef          	jal	800021b8 <debug_printf>
800040c4:	4b890513          	addi	a0,s2,1208
800040c8:	01100593          	li	a1,17
800040cc:	8ecfe0ef          	jal	800021b8 <debug_printf>
800040d0:	82c1a583          	lw	a1,-2004(gp) # 80004bf4 <Ptr_Glob>
800040d4:	658a0513          	addi	a0,s4,1624 # 80004658 <main+0xa70>
800040d8:	800044b7          	lui	s1,0x80004
800040dc:	01058593          	addi	a1,a1,16
800040e0:	8d8fe0ef          	jal	800021b8 <debug_printf>
800040e4:	67448513          	addi	a0,s1,1652 # 80004674 <main+0xa8c>
800040e8:	8d0fe0ef          	jal	800021b8 <debug_printf>
800040ec:	80004537          	lui	a0,0x80004
800040f0:	6ac50513          	addi	a0,a0,1708 # 800046ac <main+0xac4>
800040f4:	8c4fe0ef          	jal	800021b8 <debug_printf>
800040f8:	8281a783          	lw	a5,-2008(gp) # 80004bf0 <Next_Ptr_Glob>
800040fc:	5b4c0513          	addi	a0,s8,1460
80004100:	0007a583          	lw	a1,0(a5)
80004104:	8b4fe0ef          	jal	800021b8 <debug_printf>
80004108:	80004537          	lui	a0,0x80004
8000410c:	6c050513          	addi	a0,a0,1728 # 800046c0 <main+0xad8>
80004110:	8a8fe0ef          	jal	800021b8 <debug_printf>
80004114:	8281a783          	lw	a5,-2008(gp) # 80004bf0 <Next_Ptr_Glob>
80004118:	604b8513          	addi	a0,s7,1540
8000411c:	0047a583          	lw	a1,4(a5)
80004120:	898fe0ef          	jal	800021b8 <debug_printf>
80004124:	4b890513          	addi	a0,s2,1208
80004128:	00000593          	li	a1,0
8000412c:	88cfe0ef          	jal	800021b8 <debug_printf>
80004130:	8281a783          	lw	a5,-2008(gp) # 80004bf0 <Next_Ptr_Glob>
80004134:	620b0513          	addi	a0,s6,1568
80004138:	0087a583          	lw	a1,8(a5)
8000413c:	87cfe0ef          	jal	800021b8 <debug_printf>
80004140:	4b890513          	addi	a0,s2,1208
80004144:	00100593          	li	a1,1
80004148:	870fe0ef          	jal	800021b8 <debug_printf>
8000414c:	8281a783          	lw	a5,-2008(gp) # 80004bf0 <Next_Ptr_Glob>
80004150:	63ca8513          	addi	a0,s5,1596
80004154:	00c7a583          	lw	a1,12(a5)
80004158:	860fe0ef          	jal	800021b8 <debug_printf>
8000415c:	4b890513          	addi	a0,s2,1208
80004160:	01200593          	li	a1,18
80004164:	854fe0ef          	jal	800021b8 <debug_printf>
80004168:	8281a583          	lw	a1,-2008(gp) # 80004bf0 <Next_Ptr_Glob>
8000416c:	658a0513          	addi	a0,s4,1624
80004170:	01058593          	addi	a1,a1,16
80004174:	844fe0ef          	jal	800021b8 <debug_printf>
80004178:	67448513          	addi	a0,s1,1652
8000417c:	83cfe0ef          	jal	800021b8 <debug_printf>
80004180:	f7442583          	lw	a1,-140(s0)
80004184:	80004537          	lui	a0,0x80004
80004188:	70050513          	addi	a0,a0,1792 # 80004700 <main+0xb18>
8000418c:	82cfe0ef          	jal	800021b8 <debug_printf>
80004190:	4b890513          	addi	a0,s2,1208
80004194:	00500593          	li	a1,5
80004198:	820fe0ef          	jal	800021b8 <debug_printf>
8000419c:	80004537          	lui	a0,0x80004
800041a0:	00098593          	mv	a1,s3
800041a4:	71c50513          	addi	a0,a0,1820 # 8000471c <main+0xb34>
800041a8:	810fe0ef          	jal	800021b8 <debug_printf>
800041ac:	4b890513          	addi	a0,s2,1208
800041b0:	00d00593          	li	a1,13
800041b4:	804fe0ef          	jal	800021b8 <debug_printf>
800041b8:	f7842583          	lw	a1,-136(s0)
800041bc:	80004537          	lui	a0,0x80004
800041c0:	73850513          	addi	a0,a0,1848 # 80004738 <main+0xb50>
800041c4:	ff5fd0ef          	jal	800021b8 <debug_printf>
800041c8:	4b890513          	addi	a0,s2,1208
800041cc:	00700593          	li	a1,7
800041d0:	fe9fd0ef          	jal	800021b8 <debug_printf>
800041d4:	f7c42583          	lw	a1,-132(s0)
800041d8:	80004537          	lui	a0,0x80004
800041dc:	75450513          	addi	a0,a0,1876 # 80004754 <main+0xb6c>
800041e0:	fd9fd0ef          	jal	800021b8 <debug_printf>
800041e4:	4b890513          	addi	a0,s2,1208
800041e8:	00100593          	li	a1,1
800041ec:	fcdfd0ef          	jal	800021b8 <debug_printf>
800041f0:	80004537          	lui	a0,0x80004
800041f4:	f8040593          	addi	a1,s0,-128
800041f8:	77050513          	addi	a0,a0,1904 # 80004770 <main+0xb88>
800041fc:	fbdfd0ef          	jal	800021b8 <debug_printf>
80004200:	80004537          	lui	a0,0x80004
80004204:	78c50513          	addi	a0,a0,1932 # 8000478c <main+0xba4>
80004208:	fb1fd0ef          	jal	800021b8 <debug_printf>
8000420c:	80004537          	lui	a0,0x80004
80004210:	fa040593          	addi	a1,s0,-96
80004214:	7c450513          	addi	a0,a0,1988 # 800047c4 <main+0xbdc>
80004218:	fa1fd0ef          	jal	800021b8 <debug_printf>
8000421c:	80004537          	lui	a0,0x80004
80004220:	7e050513          	addi	a0,a0,2016 # 800047e0 <main+0xbf8>
80004224:	f95fd0ef          	jal	800021b8 <debug_printf>
80004228:	354d0513          	addi	a0,s10,852
8000422c:	f8dfd0ef          	jal	800021b8 <debug_printf>
80004230:	f6c42683          	lw	a3,-148(s0)
80004234:	000f47b7          	lui	a5,0xf4
80004238:	24078793          	addi	a5,a5,576 # f4240 <buflen.1+0xf4200>
8000423c:	02f687b3          	mul	a5,a3,a5
80004240:	8081a703          	lw	a4,-2040(gp) # 80004bd0 <User_Time>
80004244:	80005537          	lui	a0,0x80005
80004248:	800054b7          	lui	s1,0x80005
8000424c:	81850513          	addi	a0,a0,-2024 # 80004818 <main+0xc30>
80004250:	02d745b3          	div	a1,a4,a3
80004254:	02e7c7b3          	div	a5,a5,a4
80004258:	80005737          	lui	a4,0x80005
8000425c:	bcb72623          	sw	a1,-1076(a4) # 80004bcc <Microseconds>
80004260:	bcf4a423          	sw	a5,-1080(s1) # 80004bc8 <Dhrystones_Per_Second>
80004264:	921fe0ef          	jal	80002b84 <printf>
80004268:	bc84a583          	lw	a1,-1080(s1)
8000426c:	80005537          	lui	a0,0x80005
80004270:	84c50513          	addi	a0,a0,-1972 # 8000484c <main+0xc64>
80004274:	911fe0ef          	jal	80002b84 <printf>
80004278:	f6040113          	addi	sp,s0,-160
8000427c:	09c12083          	lw	ra,156(sp)
80004280:	09812403          	lw	s0,152(sp)
80004284:	09412483          	lw	s1,148(sp)
80004288:	09012903          	lw	s2,144(sp)
8000428c:	08c12983          	lw	s3,140(sp)
80004290:	08812a03          	lw	s4,136(sp)
80004294:	08412a83          	lw	s5,132(sp)
80004298:	08012b03          	lw	s6,128(sp)
8000429c:	07c12b83          	lw	s7,124(sp)
800042a0:	07812c03          	lw	s8,120(sp)
800042a4:	07412c83          	lw	s9,116(sp)
800042a8:	07012d03          	lw	s10,112(sp)
800042ac:	06c12d83          	lw	s11,108(sp)
800042b0:	00000513          	li	a0,0
800042b4:	0a010113          	addi	sp,sp,160
800042b8:	00008067          	ret
800042bc:	00900993          	li	s3,9
800042c0:	c51ff06f          	j	80003f10 <main+0x328>
800042c4:	80004537          	lui	a0,0x80004
800042c8:	42c50513          	addi	a0,a0,1068 # 8000442c <main+0x844>
800042cc:	8b9fe0ef          	jal	80002b84 <printf>
800042d0:	f6c42703          	lw	a4,-148(s0)
800042d4:	00271793          	slli	a5,a4,0x2
800042d8:	00e787b3          	add	a5,a5,a4
800042dc:	80004737          	lui	a4,0x80004
800042e0:	00179793          	slli	a5,a5,0x1
800042e4:	35470513          	addi	a0,a4,852 # 80004354 <main+0x76c>
800042e8:	f6f42623          	sw	a5,-148(s0)
800042ec:	899fe0ef          	jal	80002b84 <printf>
800042f0:	8141a783          	lw	a5,-2028(gp) # 80004bdc <Done>
800042f4:	a80788e3          	beqz	a5,80003d84 <main+0x19c>
800042f8:	c75ff06f          	j	80003f6c <main+0x384>
800042fc:	80004537          	lui	a0,0x80004
80004300:	3b850513          	addi	a0,a0,952 # 800043b8 <main+0x7d0>
80004304:	eb5fd0ef          	jal	800021b8 <debug_printf>
80004308:	a39ff06f          	j	80003d40 <main+0x158>
8000430c:	80005537          	lui	a0,0x80005
80004310:	ff010113          	addi	sp,sp,-16
80004314:	8fc50513          	addi	a0,a0,-1796 # 800048fc <main+0xd14>
80004318:	00112623          	sw	ra,12(sp)
8000431c:	f34fe0ef          	jal	80002a50 <printstr>
80004320:	00c12083          	lw	ra,12(sp)
80004324:	fff00513          	li	a0,-1
80004328:	01010113          	addi	sp,sp,16
8000432c:	00008067          	ret
