
elf/dhrystone_main.elf:     file format elf32-littleriscv


Disassembly of section .text:

80000000 <_start>:
80000000:	00000013          	nop
80000004:	00000093          	li	x1,0
80000008:	00000113          	li	x2,0
8000000c:	00000193          	li	x3,0
80000010:	00000213          	li	x4,0
80000014:	00000293          	li	x5,0
80000018:	00000313          	li	x6,0
8000001c:	00000393          	li	x7,0
80000020:	00000413          	li	x8,0
80000024:	00000493          	li	x9,0
80000028:	00000513          	li	x10,0
8000002c:	00000593          	li	x11,0
80000030:	00000613          	li	x12,0
80000034:	00000693          	li	x13,0
80000038:	00000713          	li	x14,0
8000003c:	00000793          	li	x15,0
80000040:	00000813          	li	x16,0
80000044:	00000893          	li	x17,0
80000048:	00000913          	li	x18,0
8000004c:	00000993          	li	x19,0
80000050:	00000a13          	li	x20,0
80000054:	00000a93          	li	x21,0
80000058:	00000b13          	li	x22,0
8000005c:	00000b93          	li	x23,0
80000060:	00000c13          	li	x24,0
80000064:	00000c93          	li	x25,0
80000068:	00000d13          	li	x26,0
8000006c:	00000d93          	li	x27,0
80000070:	00000e13          	li	x28,0
80000074:	00000e93          	li	x29,0
80000078:	00000f13          	li	x30,0
8000007c:	00000f93          	li	x31,0
80000080:	80100137          	lui	x2,0x80100
80000084:	00000297          	auipc	x5,0x0
80000088:	02428293          	addi	x5,x5,36 # 800000a8 <trap_handler>
8000008c:	00000313          	li	x6,0
80000090:	00231313          	slli	x6,x6,0x2
80000094:	0062e2b3          	or	x5,x5,x6
80000098:	30529073          	csrw	mtvec,x5
8000009c:	00001297          	auipc	x5,0x1
800000a0:	a6828293          	addi	x5,x5,-1432 # 80000b04 <main>
800000a4:	00028067          	jr	x5

800000a8 <trap_handler>:
800000a8:	fc010113          	addi	x2,x2,-64 # 800fffc0 <heap_end.0+0xf8dac>
800000ac:	00112023          	sw	x1,0(x2)
800000b0:	00512223          	sw	x5,4(x2)
800000b4:	00612423          	sw	x6,8(x2)
800000b8:	00712623          	sw	x7,12(x2)
800000bc:	00a12823          	sw	x10,16(x2)
800000c0:	00b12a23          	sw	x11,20(x2)
800000c4:	00c12c23          	sw	x12,24(x2)
800000c8:	00d12e23          	sw	x13,28(x2)
800000cc:	02e12023          	sw	x14,32(x2)
800000d0:	02f12223          	sw	x15,36(x2)
800000d4:	03012423          	sw	x16,40(x2)
800000d8:	03112623          	sw	x17,44(x2)
800000dc:	342022f3          	csrr	x5,mcause
800000e0:	00b00313          	li	x6,11
800000e4:	00628463          	beq	x5,x6,800000ec <handle_ecall>
800000e8:	01c0006f          	j	80000104 <handle_other_exception>

800000ec <handle_ecall>:
800000ec:	341022f3          	csrr	x5,mepc
800000f0:	00428293          	addi	x5,x5,4
800000f4:	34129073          	csrw	mepc,x5
800000f8:	0100006f          	j	80000108 <finish_trap>

800000fc <syscall_print_int>:
800000fc:	00c0006f          	j	80000108 <finish_trap>

80000100 <handle_other_syscall>:
80000100:	0080006f          	j	80000108 <finish_trap>

80000104 <handle_other_exception>:
80000104:	0040006f          	j	80000108 <finish_trap>

80000108 <finish_trap>:
80000108:	00012083          	lw	x1,0(x2)
8000010c:	00412283          	lw	x5,4(x2)
80000110:	00812303          	lw	x6,8(x2)
80000114:	00c12383          	lw	x7,12(x2)
80000118:	01012503          	lw	x10,16(x2)
8000011c:	01412583          	lw	x11,20(x2)
80000120:	01812603          	lw	x12,24(x2)
80000124:	01c12683          	lw	x13,28(x2)
80000128:	02012703          	lw	x14,32(x2)
8000012c:	02412783          	lw	x15,36(x2)
80000130:	02812803          	lw	x16,40(x2)
80000134:	02c12883          	lw	x17,44(x2)
80000138:	04010113          	addi	x2,x2,64
8000013c:	30200073          	mret

80000140 <putchar>:
80000140:	000807b7          	lui	x15,0x80
80000144:	00a7a023          	sw	x10,0(x15) # 80000 <_start-0x7ff80000>
80000148:	00000513          	li	x10,0
8000014c:	00008067          	ret

80000150 <getint>:
80000150:	00100693          	li	x13,1
80000154:	00052783          	lw	x15,0(x10)
80000158:	00050713          	mv	x14,x10
8000015c:	00b6cc63          	blt	x13,x11,80000174 <getint+0x24>
80000160:	0007a503          	lw	x10,0(x15)
80000164:	00478793          	addi	x15,x15,4
80000168:	00f72023          	sw	x15,0(x14)
8000016c:	41f55593          	srai	x11,x10,0x1f
80000170:	00008067          	ret
80000174:	00778793          	addi	x15,x15,7
80000178:	ff87f793          	andi	x15,x15,-8
8000017c:	00878693          	addi	x13,x15,8
80000180:	0007a503          	lw	x10,0(x15)
80000184:	0047a583          	lw	x11,4(x15)
80000188:	00d72023          	sw	x13,0(x14)
8000018c:	00008067          	ret

80000190 <getuint>:
80000190:	00100693          	li	x13,1
80000194:	00052783          	lw	x15,0(x10)
80000198:	00050713          	mv	x14,x10
8000019c:	00b6cc63          	blt	x13,x11,800001b4 <getuint+0x24>
800001a0:	00478693          	addi	x13,x15,4
800001a4:	0007a503          	lw	x10,0(x15)
800001a8:	00000593          	li	x11,0
800001ac:	00d72023          	sw	x13,0(x14)
800001b0:	00008067          	ret
800001b4:	00778793          	addi	x15,x15,7
800001b8:	ff87f793          	andi	x15,x15,-8
800001bc:	00878693          	addi	x13,x15,8
800001c0:	0007a503          	lw	x10,0(x15)
800001c4:	0047a583          	lw	x11,4(x15)
800001c8:	00d72023          	sw	x13,0(x14)
800001cc:	00008067          	ret

800001d0 <printnum.constprop.0>:
800001d0:	ed010113          	addi	x2,x2,-304
800001d4:	11612823          	sw	x22,272(x2)
800001d8:	00068b13          	mv	x22,x13
800001dc:	00000693          	li	x13,0
800001e0:	12812423          	sw	x8,296(x2)
800001e4:	12912223          	sw	x9,292(x2)
800001e8:	11412c23          	sw	x20,280(x2)
800001ec:	11512a23          	sw	x21,276(x2)
800001f0:	11712623          	sw	x23,268(x2)
800001f4:	12112623          	sw	x1,300(x2)
800001f8:	13212023          	sw	x18,288(x2)
800001fc:	11312e23          	sw	x19,284(x2)
80000200:	00050493          	mv	x9,x10
80000204:	00058413          	mv	x8,x11
80000208:	00060a13          	mv	x20,x12
8000020c:	00070a93          	mv	x21,x14
80000210:	710010ef          	jal	80001920 <__umoddi3>
80000214:	00a12023          	sw	x10,0(x2)
80000218:	00000b93          	li	x23,0
8000021c:	0c040e63          	beqz	x8,800002f8 <printnum.constprop.0+0x128>
80000220:	11812423          	sw	x24,264(x2)
80000224:	00100993          	li	x19,1
80000228:	00410c13          	addi	x24,x2,4
8000022c:	000a0613          	mv	x12,x20
80000230:	00000693          	li	x13,0
80000234:	00048513          	mv	x10,x9
80000238:	00040593          	mv	x11,x8
8000023c:	2b4010ef          	jal	800014f0 <__udivdi3>
80000240:	000a0613          	mv	x12,x20
80000244:	00000693          	li	x13,0
80000248:	00050493          	mv	x9,x10
8000024c:	00058413          	mv	x8,x11
80000250:	6d0010ef          	jal	80001920 <__umoddi3>
80000254:	00ac2023          	sw	x10,0(x24)
80000258:	00098913          	mv	x18,x19
8000025c:	004c0c13          	addi	x24,x24,4
80000260:	00198993          	addi	x19,x19,1
80000264:	fc8b94e3          	bne	x23,x8,8000022c <printnum.constprop.0+0x5c>
80000268:	fd44f2e3          	bgeu	x9,x20,8000022c <printnum.constprop.0+0x5c>
8000026c:	10812c03          	lw	x24,264(x2)
80000270:	fffb0413          	addi	x8,x22,-1
80000274:	fff98493          	addi	x9,x19,-1
80000278:	0169dc63          	bge	x19,x22,80000290 <printnum.constprop.0+0xc0>
8000027c:	00000593          	li	x11,0
80000280:	000a8513          	mv	x10,x21
80000284:	fff40413          	addi	x8,x8,-1
80000288:	eb9ff0ef          	jal	80000140 <putchar>
8000028c:	fe9418e3          	bne	x8,x9,8000027c <printnum.constprop.0+0xac>
80000290:	00291413          	slli	x8,x18,0x2
80000294:	00010493          	mv	x9,x2
80000298:	00848433          	add	x8,x9,x8
8000029c:	00900913          	li	x18,9
800002a0:	0080006f          	j	800002a8 <printnum.constprop.0+0xd8>
800002a4:	00078413          	mv	x8,x15
800002a8:	00042783          	lw	x15,0(x8)
800002ac:	00000593          	li	x11,0
800002b0:	03000513          	li	x10,48
800002b4:	00f97463          	bgeu	x18,x15,800002bc <printnum.constprop.0+0xec>
800002b8:	05700513          	li	x10,87
800002bc:	00a78533          	add	x10,x15,x10
800002c0:	e81ff0ef          	jal	80000140 <putchar>
800002c4:	ffc40793          	addi	x15,x8,-4
800002c8:	fc849ee3          	bne	x9,x8,800002a4 <printnum.constprop.0+0xd4>
800002cc:	12c12083          	lw	x1,300(x2)
800002d0:	12812403          	lw	x8,296(x2)
800002d4:	12412483          	lw	x9,292(x2)
800002d8:	12012903          	lw	x18,288(x2)
800002dc:	11c12983          	lw	x19,284(x2)
800002e0:	11812a03          	lw	x20,280(x2)
800002e4:	11412a83          	lw	x21,276(x2)
800002e8:	11012b03          	lw	x22,272(x2)
800002ec:	10c12b83          	lw	x23,268(x2)
800002f0:	13010113          	addi	x2,x2,304
800002f4:	00008067          	ret
800002f8:	f344f4e3          	bgeu	x9,x20,80000220 <printnum.constprop.0+0x50>
800002fc:	00000913          	li	x18,0
80000300:	00100993          	li	x19,1
80000304:	f6dff06f          	j	80000270 <printnum.constprop.0+0xa0>

80000308 <Proc_7>:
80000308:	00250513          	addi	x10,x10,2
8000030c:	00b505b3          	add	x11,x10,x11
80000310:	00b62023          	sw	x11,0(x12)
80000314:	00008067          	ret

80000318 <Proc_8>:
80000318:	00560713          	addi	x14,x12,5
8000031c:	0c800813          	li	x16,200
80000320:	03070833          	mul	x16,x14,x16
80000324:	00261613          	slli	x12,x12,0x2
80000328:	00271793          	slli	x15,x14,0x2
8000032c:	00f50533          	add	x10,x10,x15
80000330:	00d52023          	sw	x13,0(x10)
80000334:	06e52c23          	sw	x14,120(x10)
80000338:	00d52223          	sw	x13,4(x10)
8000033c:	00c807b3          	add	x15,x16,x12
80000340:	00f587b3          	add	x15,x11,x15
80000344:	0107a683          	lw	x13,16(x15)
80000348:	00e7aa23          	sw	x14,20(x15)
8000034c:	00e7ac23          	sw	x14,24(x15)
80000350:	00168713          	addi	x14,x13,1
80000354:	00e7a823          	sw	x14,16(x15)
80000358:	00052703          	lw	x14,0(x10)
8000035c:	010585b3          	add	x11,x11,x16
80000360:	00c585b3          	add	x11,x11,x12
80000364:	000017b7          	lui	x15,0x1
80000368:	00b787b3          	add	x15,x15,x11
8000036c:	fae7aa23          	sw	x14,-76(x15) # fb4 <_start-0x7ffff04c>
80000370:	800077b7          	lui	x15,0x80007
80000374:	00500713          	li	x14,5
80000378:	1ee7aa23          	sw	x14,500(x15) # 800071f4 <Int_Glob>
8000037c:	00008067          	ret

80000380 <Func_1>:
80000380:	0ff57513          	zext.b	x10,x10
80000384:	0ff5f593          	zext.b	x11,x11
80000388:	00b50663          	beq	x10,x11,80000394 <Func_1+0x14>
8000038c:	00000513          	li	x10,0
80000390:	00008067          	ret
80000394:	800077b7          	lui	x15,0x80007
80000398:	1ea786a3          	sb	x10,493(x15) # 800071ed <Ch_1_Glob>
8000039c:	00100513          	li	x10,1
800003a0:	00008067          	ret

800003a4 <Func_2>:
800003a4:	ff010113          	addi	x2,x2,-16
800003a8:	00812423          	sw	x8,8(x2)
800003ac:	00912223          	sw	x9,4(x2)
800003b0:	00112623          	sw	x1,12(x2)
800003b4:	00050413          	mv	x8,x10
800003b8:	00058493          	mv	x9,x11
800003bc:	0034c583          	lbu	x11,3(x9)
800003c0:	00244503          	lbu	x10,2(x8)
800003c4:	fbdff0ef          	jal	80000380 <Func_1>
800003c8:	fe051ae3          	bnez	x10,800003bc <Func_2+0x18>
800003cc:	00048593          	mv	x11,x9
800003d0:	00040513          	mv	x10,x8
800003d4:	2b9010ef          	jal	80001e8c <strcmp>
800003d8:	00000793          	li	x15,0
800003dc:	00a05a63          	blez	x10,800003f0 <Func_2+0x4c>
800003e0:	800077b7          	lui	x15,0x80007
800003e4:	00a00713          	li	x14,10
800003e8:	1ee7aa23          	sw	x14,500(x15) # 800071f4 <Int_Glob>
800003ec:	00100793          	li	x15,1
800003f0:	00c12083          	lw	x1,12(x2)
800003f4:	00812403          	lw	x8,8(x2)
800003f8:	00412483          	lw	x9,4(x2)
800003fc:	00078513          	mv	x10,x15
80000400:	01010113          	addi	x2,x2,16
80000404:	00008067          	ret

80000408 <Func_3>:
80000408:	ffe50513          	addi	x10,x10,-2
8000040c:	00153513          	seqz	x10,x10
80000410:	00008067          	ret

80000414 <Proc_6>:
80000414:	ff010113          	addi	x2,x2,-16
80000418:	00812423          	sw	x8,8(x2)
8000041c:	00912223          	sw	x9,4(x2)
80000420:	00112623          	sw	x1,12(x2)
80000424:	00050413          	mv	x8,x10
80000428:	00058493          	mv	x9,x11
8000042c:	fddff0ef          	jal	80000408 <Func_3>
80000430:	00300793          	li	x15,3
80000434:	00050463          	beqz	x10,8000043c <Proc_6+0x28>
80000438:	00040793          	mv	x15,x8
8000043c:	00f4a023          	sw	x15,0(x9)
80000440:	00200793          	li	x15,2
80000444:	04f40a63          	beq	x8,x15,80000498 <Proc_6+0x84>
80000448:	0287e863          	bltu	x15,x8,80000478 <Proc_6+0x64>
8000044c:	00040a63          	beqz	x8,80000460 <Proc_6+0x4c>
80000450:	800077b7          	lui	x15,0x80007
80000454:	1f47a703          	lw	x14,500(x15) # 800071f4 <Int_Glob>
80000458:	06400793          	li	x15,100
8000045c:	04e7dc63          	bge	x15,x14,800004b4 <Proc_6+0xa0>
80000460:	00c12083          	lw	x1,12(x2)
80000464:	00812403          	lw	x8,8(x2)
80000468:	0004a023          	sw	x0,0(x9)
8000046c:	00412483          	lw	x9,4(x2)
80000470:	01010113          	addi	x2,x2,16
80000474:	00008067          	ret
80000478:	00400713          	li	x14,4
8000047c:	00e41463          	bne	x8,x14,80000484 <Proc_6+0x70>
80000480:	00f4a023          	sw	x15,0(x9)
80000484:	00c12083          	lw	x1,12(x2)
80000488:	00812403          	lw	x8,8(x2)
8000048c:	00412483          	lw	x9,4(x2)
80000490:	01010113          	addi	x2,x2,16
80000494:	00008067          	ret
80000498:	00c12083          	lw	x1,12(x2)
8000049c:	00812403          	lw	x8,8(x2)
800004a0:	00100793          	li	x15,1
800004a4:	00f4a023          	sw	x15,0(x9)
800004a8:	00412483          	lw	x9,4(x2)
800004ac:	01010113          	addi	x2,x2,16
800004b0:	00008067          	ret
800004b4:	00c12083          	lw	x1,12(x2)
800004b8:	00812403          	lw	x8,8(x2)
800004bc:	00300793          	li	x15,3
800004c0:	00f4a023          	sw	x15,0(x9)
800004c4:	00412483          	lw	x9,4(x2)
800004c8:	01010113          	addi	x2,x2,16
800004cc:	00008067          	ret

800004d0 <strlen>:
800004d0:	00054783          	lbu	x15,0(x10)
800004d4:	00078e63          	beqz	x15,800004f0 <strlen+0x20>
800004d8:	00050793          	mv	x15,x10
800004dc:	0017c703          	lbu	x14,1(x15)
800004e0:	00178793          	addi	x15,x15,1
800004e4:	fe071ce3          	bnez	x14,800004dc <strlen+0xc>
800004e8:	40a78533          	sub	x10,x15,x10
800004ec:	00008067          	ret
800004f0:	00000513          	li	x10,0
800004f4:	00008067          	ret

800004f8 <strnlen>:
800004f8:	00b506b3          	add	x13,x10,x11
800004fc:	00050793          	mv	x15,x10
80000500:	00059863          	bnez	x11,80000510 <strnlen+0x18>
80000504:	0240006f          	j	80000528 <strnlen+0x30>
80000508:	00178793          	addi	x15,x15,1
8000050c:	00f68a63          	beq	x13,x15,80000520 <strnlen+0x28>
80000510:	0007c703          	lbu	x14,0(x15)
80000514:	fe071ae3          	bnez	x14,80000508 <strnlen+0x10>
80000518:	40a78533          	sub	x10,x15,x10
8000051c:	00008067          	ret
80000520:	40a68533          	sub	x10,x13,x10
80000524:	00008067          	ret
80000528:	00000513          	li	x10,0
8000052c:	00008067          	ret

80000530 <vprintfmt.constprop.0>:
80000530:	fc010113          	addi	x2,x2,-64
80000534:	03312623          	sw	x19,44(x2)
80000538:	800049b7          	lui	x19,0x80004
8000053c:	02812c23          	sw	x8,56(x2)
80000540:	02912a23          	sw	x9,52(x2)
80000544:	03412423          	sw	x20,40(x2)
80000548:	02112e23          	sw	x1,60(x2)
8000054c:	03212823          	sw	x18,48(x2)
80000550:	03512223          	sw	x21,36(x2)
80000554:	03612023          	sw	x22,32(x2)
80000558:	01712e23          	sw	x23,28(x2)
8000055c:	00050413          	mv	x8,x10
80000560:	00b12623          	sw	x11,12(x2)
80000564:	02500493          	li	x9,37
80000568:	05500a13          	li	x20,85
8000056c:	08c98993          	addi	x19,x19,140 # 8000408c <__errno+0x564>
80000570:	0140006f          	j	80000584 <vprintfmt.constprop.0+0x54>
80000574:	04050a63          	beqz	x10,800005c8 <vprintfmt.constprop.0+0x98>
80000578:	00000593          	li	x11,0
8000057c:	00140413          	addi	x8,x8,1
80000580:	bc1ff0ef          	jal	80000140 <putchar>
80000584:	00044503          	lbu	x10,0(x8)
80000588:	fe9516e3          	bne	x10,x9,80000574 <vprintfmt.constprop.0+0x44>
8000058c:	00140413          	addi	x8,x8,1
80000590:	00040693          	mv	x13,x8
80000594:	02000a93          	li	x21,32
80000598:	fff00b93          	li	x23,-1
8000059c:	fff00913          	li	x18,-1
800005a0:	00000593          	li	x11,0
800005a4:	0006c703          	lbu	x14,0(x13)
800005a8:	00168b13          	addi	x22,x13,1
800005ac:	fdd70793          	addi	x15,x14,-35
800005b0:	0ff7f793          	zext.b	x15,x15
800005b4:	04fa6e63          	bltu	x20,x15,80000610 <vprintfmt.constprop.0+0xe0>
800005b8:	00279793          	slli	x15,x15,0x2
800005bc:	013787b3          	add	x15,x15,x19
800005c0:	0007a783          	lw	x15,0(x15)
800005c4:	00078067          	jr	x15
800005c8:	03c12083          	lw	x1,60(x2)
800005cc:	03812403          	lw	x8,56(x2)
800005d0:	03412483          	lw	x9,52(x2)
800005d4:	03012903          	lw	x18,48(x2)
800005d8:	02c12983          	lw	x19,44(x2)
800005dc:	02812a03          	lw	x20,40(x2)
800005e0:	02412a83          	lw	x21,36(x2)
800005e4:	02012b03          	lw	x22,32(x2)
800005e8:	01c12b83          	lw	x23,28(x2)
800005ec:	04010113          	addi	x2,x2,64
800005f0:	00008067          	ret
800005f4:	00158593          	addi	x11,x11,1
800005f8:	000b0693          	mv	x13,x22
800005fc:	0006c703          	lbu	x14,0(x13)
80000600:	00168b13          	addi	x22,x13,1
80000604:	fdd70793          	addi	x15,x14,-35
80000608:	0ff7f793          	zext.b	x15,x15
8000060c:	fafa76e3          	bgeu	x20,x15,800005b8 <vprintfmt.constprop.0+0x88>
80000610:	00000593          	li	x11,0
80000614:	02500513          	li	x10,37
80000618:	b29ff0ef          	jal	80000140 <putchar>
8000061c:	f69ff06f          	j	80000584 <vprintfmt.constprop.0+0x54>
80000620:	0016c603          	lbu	x12,1(x13)
80000624:	fd070b93          	addi	x23,x14,-48
80000628:	00900793          	li	x15,9
8000062c:	fd060713          	addi	x14,x12,-48
80000630:	000b0693          	mv	x13,x22
80000634:	02e7e663          	bltu	x15,x14,80000660 <vprintfmt.constprop.0+0x130>
80000638:	00900713          	li	x14,9
8000063c:	002b9793          	slli	x15,x23,0x2
80000640:	017787b3          	add	x15,x15,x23
80000644:	00168693          	addi	x13,x13,1
80000648:	00179793          	slli	x15,x15,0x1
8000064c:	00c787b3          	add	x15,x15,x12
80000650:	0006c603          	lbu	x12,0(x13)
80000654:	fd078b93          	addi	x23,x15,-48
80000658:	fd060793          	addi	x15,x12,-48
8000065c:	fef770e3          	bgeu	x14,x15,8000063c <vprintfmt.constprop.0+0x10c>
80000660:	f40952e3          	bgez	x18,800005a4 <vprintfmt.constprop.0+0x74>
80000664:	000b8913          	mv	x18,x23
80000668:	fff00b93          	li	x23,-1
8000066c:	f39ff06f          	j	800005a4 <vprintfmt.constprop.0+0x74>
80000670:	00070a93          	mv	x21,x14
80000674:	000b0693          	mv	x13,x22
80000678:	f2dff06f          	j	800005a4 <vprintfmt.constprop.0+0x74>
8000067c:	00c12783          	lw	x15,12(x2)
80000680:	000b0693          	mv	x13,x22
80000684:	00478713          	addi	x14,x15,4
80000688:	0007ab83          	lw	x23,0(x15)
8000068c:	00e12623          	sw	x14,12(x2)
80000690:	fd1ff06f          	j	80000660 <vprintfmt.constprop.0+0x130>
80000694:	00000593          	li	x11,0
80000698:	02500513          	li	x10,37
8000069c:	aa5ff0ef          	jal	80000140 <putchar>
800006a0:	000b0413          	mv	x8,x22
800006a4:	ee1ff06f          	j	80000584 <vprintfmt.constprop.0+0x54>
800006a8:	00c12783          	lw	x15,12(x2)
800006ac:	0007a403          	lw	x8,0(x15)
800006b0:	00478793          	addi	x15,x15,4
800006b4:	00f12623          	sw	x15,12(x2)
800006b8:	16040663          	beqz	x8,80000824 <vprintfmt.constprop.0+0x2f4>
800006bc:	09205663          	blez	x18,80000748 <vprintfmt.constprop.0+0x218>
800006c0:	02d00793          	li	x15,45
800006c4:	04fa9e63          	bne	x21,x15,80000720 <vprintfmt.constprop.0+0x1f0>
800006c8:	00044503          	lbu	x10,0(x8)
800006cc:	02050863          	beqz	x10,800006fc <vprintfmt.constprop.0+0x1cc>
800006d0:	fff00a93          	li	x21,-1
800006d4:	000bc663          	bltz	x23,800006e0 <vprintfmt.constprop.0+0x1b0>
800006d8:	fffb8b93          	addi	x23,x23,-1
800006dc:	015b8e63          	beq	x23,x21,800006f8 <vprintfmt.constprop.0+0x1c8>
800006e0:	00000593          	li	x11,0
800006e4:	a5dff0ef          	jal	80000140 <putchar>
800006e8:	00144503          	lbu	x10,1(x8)
800006ec:	fff90913          	addi	x18,x18,-1
800006f0:	00140413          	addi	x8,x8,1
800006f4:	fe0510e3          	bnez	x10,800006d4 <vprintfmt.constprop.0+0x1a4>
800006f8:	fb2054e3          	blez	x18,800006a0 <vprintfmt.constprop.0+0x170>
800006fc:	00000593          	li	x11,0
80000700:	02000513          	li	x10,32
80000704:	fff90913          	addi	x18,x18,-1
80000708:	a39ff0ef          	jal	80000140 <putchar>
8000070c:	fe0918e3          	bnez	x18,800006fc <vprintfmt.constprop.0+0x1cc>
80000710:	000b0413          	mv	x8,x22
80000714:	e71ff06f          	j	80000584 <vprintfmt.constprop.0+0x54>
80000718:	80004437          	lui	x8,0x80004
8000071c:	b3440413          	addi	x8,x8,-1228 # 80003b34 <__errno+0xc>
80000720:	000b8593          	mv	x11,x23
80000724:	00040513          	mv	x10,x8
80000728:	dd1ff0ef          	jal	800004f8 <strnlen>
8000072c:	40a90933          	sub	x18,x18,x10
80000730:	01205c63          	blez	x18,80000748 <vprintfmt.constprop.0+0x218>
80000734:	00000593          	li	x11,0
80000738:	000a8513          	mv	x10,x21
8000073c:	fff90913          	addi	x18,x18,-1
80000740:	a01ff0ef          	jal	80000140 <putchar>
80000744:	fe0918e3          	bnez	x18,80000734 <vprintfmt.constprop.0+0x204>
80000748:	00044503          	lbu	x10,0(x8)
8000074c:	f4050ae3          	beqz	x10,800006a0 <vprintfmt.constprop.0+0x170>
80000750:	fff00a93          	li	x21,-1
80000754:	f81ff06f          	j	800006d4 <vprintfmt.constprop.0+0x1a4>
80000758:	fff94793          	not	x15,x18
8000075c:	41f7d793          	srai	x15,x15,0x1f
80000760:	00f97933          	and	x18,x18,x15
80000764:	000b0693          	mv	x13,x22
80000768:	e3dff06f          	j	800005a4 <vprintfmt.constprop.0+0x74>
8000076c:	00c12783          	lw	x15,12(x2)
80000770:	00000593          	li	x11,0
80000774:	000b0413          	mv	x8,x22
80000778:	0007a503          	lw	x10,0(x15)
8000077c:	00478793          	addi	x15,x15,4
80000780:	00f12623          	sw	x15,12(x2)
80000784:	9bdff0ef          	jal	80000140 <putchar>
80000788:	dfdff06f          	j	80000584 <vprintfmt.constprop.0+0x54>
8000078c:	00c10513          	addi	x10,x2,12
80000790:	9c1ff0ef          	jal	80000150 <getint>
80000794:	00058413          	mv	x8,x11
80000798:	00050b93          	mv	x23,x10
8000079c:	0605c263          	bltz	x11,80000800 <vprintfmt.constprop.0+0x2d0>
800007a0:	00a00413          	li	x8,10
800007a4:	00040613          	mv	x12,x8
800007a8:	000a8713          	mv	x14,x21
800007ac:	00090693          	mv	x13,x18
800007b0:	a21ff0ef          	jal	800001d0 <printnum.constprop.0>
800007b4:	000b0413          	mv	x8,x22
800007b8:	dcdff06f          	j	80000584 <vprintfmt.constprop.0+0x54>
800007bc:	00800413          	li	x8,8
800007c0:	00c10513          	addi	x10,x2,12
800007c4:	9cdff0ef          	jal	80000190 <getuint>
800007c8:	fddff06f          	j	800007a4 <vprintfmt.constprop.0+0x274>
800007cc:	00000593          	li	x11,0
800007d0:	03000513          	li	x10,48
800007d4:	96dff0ef          	jal	80000140 <putchar>
800007d8:	00000593          	li	x11,0
800007dc:	07800513          	li	x10,120
800007e0:	961ff0ef          	jal	80000140 <putchar>
800007e4:	01000413          	li	x8,16
800007e8:	00100593          	li	x11,1
800007ec:	fd5ff06f          	j	800007c0 <vprintfmt.constprop.0+0x290>
800007f0:	00a00413          	li	x8,10
800007f4:	fcdff06f          	j	800007c0 <vprintfmt.constprop.0+0x290>
800007f8:	01000413          	li	x8,16
800007fc:	fc5ff06f          	j	800007c0 <vprintfmt.constprop.0+0x290>
80000800:	00000593          	li	x11,0
80000804:	02d00513          	li	x10,45
80000808:	939ff0ef          	jal	80000140 <putchar>
8000080c:	408005b3          	neg	x11,x8
80000810:	017037b3          	snez	x15,x23
80000814:	41700533          	neg	x10,x23
80000818:	40f585b3          	sub	x11,x11,x15
8000081c:	00a00413          	li	x8,10
80000820:	f85ff06f          	j	800007a4 <vprintfmt.constprop.0+0x274>
80000824:	01205663          	blez	x18,80000830 <vprintfmt.constprop.0+0x300>
80000828:	02d00793          	li	x15,45
8000082c:	eefa96e3          	bne	x21,x15,80000718 <vprintfmt.constprop.0+0x1e8>
80000830:	80004437          	lui	x8,0x80004
80000834:	b3440413          	addi	x8,x8,-1228 # 80003b34 <__errno+0xc>
80000838:	02800513          	li	x10,40
8000083c:	fff00a93          	li	x21,-1
80000840:	e95ff06f          	j	800006d4 <vprintfmt.constprop.0+0x1a4>

80000844 <printf>:
80000844:	fc010113          	addi	x2,x2,-64
80000848:	02410313          	addi	x6,x2,36
8000084c:	02b12223          	sw	x11,36(x2)
80000850:	00030593          	mv	x11,x6
80000854:	00112e23          	sw	x1,28(x2)
80000858:	02c12423          	sw	x12,40(x2)
8000085c:	02d12623          	sw	x13,44(x2)
80000860:	02e12823          	sw	x14,48(x2)
80000864:	02f12a23          	sw	x15,52(x2)
80000868:	03012c23          	sw	x16,56(x2)
8000086c:	03112e23          	sw	x17,60(x2)
80000870:	00612623          	sw	x6,12(x2)
80000874:	cbdff0ef          	jal	80000530 <vprintfmt.constprop.0>
80000878:	01c12083          	lw	x1,28(x2)
8000087c:	00000513          	li	x10,0
80000880:	04010113          	addi	x2,x2,64
80000884:	00008067          	ret

80000888 <memset>:
80000888:	ff010113          	addi	x2,x2,-16
8000088c:	00c567b3          	or	x15,x10,x12
80000890:	00812423          	sw	x8,8(x2)
80000894:	00112623          	sw	x1,12(x2)
80000898:	0037f793          	andi	x15,x15,3
8000089c:	00050413          	mv	x8,x10
800008a0:	00c50733          	add	x14,x10,x12
800008a4:	02078263          	beqz	x15,800008c8 <memset+0x40>
800008a8:	00e57663          	bgeu	x10,x14,800008b4 <memset+0x2c>
800008ac:	0ff5f593          	zext.b	x11,x11
800008b0:	fd9ff0ef          	jal	80000888 <memset>
800008b4:	00c12083          	lw	x1,12(x2)
800008b8:	00040513          	mv	x10,x8
800008bc:	00812403          	lw	x8,8(x2)
800008c0:	01010113          	addi	x2,x2,16
800008c4:	00008067          	ret
800008c8:	0ff5f593          	zext.b	x11,x11
800008cc:	00859693          	slli	x13,x11,0x8
800008d0:	00b686b3          	add	x13,x13,x11
800008d4:	01069793          	slli	x15,x13,0x10
800008d8:	00f686b3          	add	x13,x13,x15
800008dc:	fce57ce3          	bgeu	x10,x14,800008b4 <memset+0x2c>
800008e0:	00050793          	mv	x15,x10
800008e4:	00478793          	addi	x15,x15,4
800008e8:	fed7ae23          	sw	x13,-4(x15)
800008ec:	fee7ece3          	bltu	x15,x14,800008e4 <memset+0x5c>
800008f0:	00c12083          	lw	x1,12(x2)
800008f4:	00040513          	mv	x10,x8
800008f8:	00812403          	lw	x8,8(x2)
800008fc:	01010113          	addi	x2,x2,16
80000900:	00008067          	ret

80000904 <Proc_2>:
80000904:	800077b7          	lui	x15,0x80007
80000908:	1ed7c703          	lbu	x14,493(x15) # 800071ed <Ch_1_Glob>
8000090c:	04100793          	li	x15,65
80000910:	00f70463          	beq	x14,x15,80000918 <Proc_2+0x14>
80000914:	00008067          	ret
80000918:	00052783          	lw	x15,0(x10)
8000091c:	80007737          	lui	x14,0x80007
80000920:	1f472703          	lw	x14,500(x14) # 800071f4 <Int_Glob>
80000924:	00978793          	addi	x15,x15,9
80000928:	40e787b3          	sub	x15,x15,x14
8000092c:	00f52023          	sw	x15,0(x10)
80000930:	00008067          	ret

80000934 <Proc_3>:
80000934:	800077b7          	lui	x15,0x80007
80000938:	1fc7a603          	lw	x12,508(x15) # 800071fc <Ptr_Glob>
8000093c:	00060863          	beqz	x12,8000094c <Proc_3+0x18>
80000940:	00062703          	lw	x14,0(x12)
80000944:	00e52023          	sw	x14,0(x10)
80000948:	1fc7a603          	lw	x12,508(x15)
8000094c:	800077b7          	lui	x15,0x80007
80000950:	1f47a583          	lw	x11,500(x15) # 800071f4 <Int_Glob>
80000954:	00c60613          	addi	x12,x12,12
80000958:	00a00513          	li	x10,10
8000095c:	9adff06f          	j	80000308 <Proc_7>

80000960 <Proc_1>:
80000960:	ff010113          	addi	x2,x2,-16
80000964:	800077b7          	lui	x15,0x80007
80000968:	01212023          	sw	x18,0(x2)
8000096c:	1fc7a903          	lw	x18,508(x15) # 800071fc <Ptr_Glob>
80000970:	00812423          	sw	x8,8(x2)
80000974:	00052403          	lw	x8,0(x10)
80000978:	00092783          	lw	x15,0(x18)
8000097c:	00912223          	sw	x9,4(x2)
80000980:	00492f03          	lw	x30,4(x18)
80000984:	00892e83          	lw	x29,8(x18)
80000988:	01092e03          	lw	x28,16(x18)
8000098c:	01492303          	lw	x6,20(x18)
80000990:	01892883          	lw	x17,24(x18)
80000994:	01c92803          	lw	x16,28(x18)
80000998:	02492583          	lw	x11,36(x18)
8000099c:	02892603          	lw	x12,40(x18)
800009a0:	02c92683          	lw	x13,44(x18)
800009a4:	00112623          	sw	x1,12(x2)
800009a8:	00050493          	mv	x9,x10
800009ac:	02092503          	lw	x10,32(x18)
800009b0:	00f42023          	sw	x15,0(x8)
800009b4:	0004a703          	lw	x14,0(x9)
800009b8:	00500793          	li	x15,5
800009bc:	02a42023          	sw	x10,32(x8)
800009c0:	01e42223          	sw	x30,4(x8)
800009c4:	01d42423          	sw	x29,8(x8)
800009c8:	01c42823          	sw	x28,16(x8)
800009cc:	00642a23          	sw	x6,20(x8)
800009d0:	01142c23          	sw	x17,24(x8)
800009d4:	01042e23          	sw	x16,28(x8)
800009d8:	02b42223          	sw	x11,36(x8)
800009dc:	02c42423          	sw	x12,40(x8)
800009e0:	02d42623          	sw	x13,44(x8)
800009e4:	00f4a623          	sw	x15,12(x9)
800009e8:	00f42623          	sw	x15,12(x8)
800009ec:	00e42023          	sw	x14,0(x8)
800009f0:	00040513          	mv	x10,x8
800009f4:	f41ff0ef          	jal	80000934 <Proc_3>
800009f8:	00442783          	lw	x15,4(x8)
800009fc:	08078063          	beqz	x15,80000a7c <Proc_1+0x11c>
80000a00:	0004a783          	lw	x15,0(x9)
80000a04:	00c12083          	lw	x1,12(x2)
80000a08:	00812403          	lw	x8,8(x2)
80000a0c:	0007af83          	lw	x31,0(x15)
80000a10:	0047af03          	lw	x30,4(x15)
80000a14:	0087ae83          	lw	x29,8(x15)
80000a18:	00c7ae03          	lw	x28,12(x15)
80000a1c:	0107a303          	lw	x6,16(x15)
80000a20:	0147a883          	lw	x17,20(x15)
80000a24:	0187a803          	lw	x16,24(x15)
80000a28:	01c7a583          	lw	x11,28(x15)
80000a2c:	0207a603          	lw	x12,32(x15)
80000a30:	0247a683          	lw	x13,36(x15)
80000a34:	0287a703          	lw	x14,40(x15)
80000a38:	02c7a783          	lw	x15,44(x15)
80000a3c:	01f4a023          	sw	x31,0(x9)
80000a40:	01e4a223          	sw	x30,4(x9)
80000a44:	01d4a423          	sw	x29,8(x9)
80000a48:	01c4a623          	sw	x28,12(x9)
80000a4c:	0064a823          	sw	x6,16(x9)
80000a50:	0114aa23          	sw	x17,20(x9)
80000a54:	0104ac23          	sw	x16,24(x9)
80000a58:	00b4ae23          	sw	x11,28(x9)
80000a5c:	02c4a023          	sw	x12,32(x9)
80000a60:	02d4a223          	sw	x13,36(x9)
80000a64:	02e4a423          	sw	x14,40(x9)
80000a68:	02f4a623          	sw	x15,44(x9)
80000a6c:	00012903          	lw	x18,0(x2)
80000a70:	00412483          	lw	x9,4(x2)
80000a74:	01010113          	addi	x2,x2,16
80000a78:	00008067          	ret
80000a7c:	0084a503          	lw	x10,8(x9)
80000a80:	00600793          	li	x15,6
80000a84:	00f42623          	sw	x15,12(x8)
80000a88:	00840593          	addi	x11,x8,8
80000a8c:	989ff0ef          	jal	80000414 <Proc_6>
80000a90:	00092783          	lw	x15,0(x18)
80000a94:	00c40613          	addi	x12,x8,12
80000a98:	00c12083          	lw	x1,12(x2)
80000a9c:	00f42023          	sw	x15,0(x8)
80000aa0:	00812403          	lw	x8,8(x2)
80000aa4:	00412483          	lw	x9,4(x2)
80000aa8:	00012903          	lw	x18,0(x2)
80000aac:	00a00593          	li	x11,10
80000ab0:	00600513          	li	x10,6
80000ab4:	01010113          	addi	x2,x2,16
80000ab8:	851ff06f          	j	80000308 <Proc_7>

80000abc <Proc_4>:
80000abc:	800077b7          	lui	x15,0x80007
80000ac0:	1ed7c783          	lbu	x15,493(x15) # 800071ed <Ch_1_Glob>
80000ac4:	80007737          	lui	x14,0x80007
80000ac8:	1f072683          	lw	x13,496(x14) # 800071f0 <Bool_Glob>
80000acc:	fbf78793          	addi	x15,x15,-65
80000ad0:	0017b793          	seqz	x15,x15
80000ad4:	00d7e7b3          	or	x15,x15,x13
80000ad8:	1ef72823          	sw	x15,496(x14)
80000adc:	800077b7          	lui	x15,0x80007
80000ae0:	04200713          	li	x14,66
80000ae4:	1ee78623          	sb	x14,492(x15) # 800071ec <Ch_2_Glob>
80000ae8:	00008067          	ret

80000aec <Proc_5>:
80000aec:	800077b7          	lui	x15,0x80007
80000af0:	04100713          	li	x14,65
80000af4:	1ee786a3          	sb	x14,493(x15) # 800071ed <Ch_1_Glob>
80000af8:	800077b7          	lui	x15,0x80007
80000afc:	1e07a823          	sw	x0,496(x15) # 800071f0 <Bool_Glob>
80000b00:	00008067          	ret

80000b04 <main>:
80000b04:	f7010113          	addi	x2,x2,-144
80000b08:	08112623          	sw	x1,140(x2)
80000b0c:	08812423          	sw	x8,136(x2)
80000b10:	07812423          	sw	x24,104(x2)
80000b14:	05b12e23          	sw	x27,92(x2)
80000b18:	08912223          	sw	x9,132(x2)
80000b1c:	09212023          	sw	x18,128(x2)
80000b20:	07312e23          	sw	x19,124(x2)
80000b24:	07412c23          	sw	x20,120(x2)
80000b28:	07512a23          	sw	x21,116(x2)
80000b2c:	07612823          	sw	x22,112(x2)
80000b30:	07712623          	sw	x23,108(x2)
80000b34:	07912223          	sw	x25,100(x2)
80000b38:	07a12023          	sw	x26,96(x2)
80000b3c:	09010413          	addi	x8,x2,144
80000b40:	fc010113          	addi	x2,x2,-64
80000b44:	00f10713          	addi	x14,x2,15
80000b48:	fc010113          	addi	x2,x2,-64
80000b4c:	00f10793          	addi	x15,x2,15
80000b50:	ff07f793          	andi	x15,x15,-16
80000b54:	800076b7          	lui	x13,0x80007
80000b58:	ff077713          	andi	x14,x14,-16
80000b5c:	1ee6ac23          	sw	x14,504(x13) # 800071f8 <Next_Ptr_Glob>
80000b60:	00e7a023          	sw	x14,0(x15)
80000b64:	00200713          	li	x14,2
80000b68:	00e7a423          	sw	x14,8(x15)
80000b6c:	800045b7          	lui	x11,0x80004
80000b70:	02800713          	li	x14,40
80000b74:	00e7a623          	sw	x14,12(x15)
80000b78:	01078513          	addi	x10,x15,16
80000b7c:	0007a223          	sw	x0,4(x15)
80000b80:	b4058593          	addi	x11,x11,-1216 # 80003b40 <__errno+0x18>
80000b84:	80007c37          	lui	x24,0x80007
80000b88:	1efc2e23          	sw	x15,508(x24) # 800071fc <Ptr_Glob>
80000b8c:	250010ef          	jal	80001ddc <strcpy>
80000b90:	800045b7          	lui	x11,0x80004
80000b94:	b6058593          	addi	x11,x11,-1184 # 80003b60 <__errno+0x38>
80000b98:	f8040513          	addi	x10,x8,-128
80000b9c:	240010ef          	jal	80001ddc <strcpy>
80000ba0:	800047b7          	lui	x15,0x80004
80000ba4:	80005db7          	lui	x27,0x80005
80000ba8:	964d8713          	addi	x14,x27,-1692 # 80004964 <Arr_2_Glob>
80000bac:	b8078513          	addi	x10,x15,-1152 # 80003b80 <__errno+0x58>
80000bb0:	00a00793          	li	x15,10
80000bb4:	64f72e23          	sw	x15,1628(x14)
80000bb8:	c8dff0ef          	jal	80000844 <printf>
80000bbc:	800045b7          	lui	x11,0x80004
80000bc0:	80004537          	lui	x10,0x80004
80000bc4:	b8458593          	addi	x11,x11,-1148 # 80003b84 <__errno+0x5c>
80000bc8:	b9450513          	addi	x10,x10,-1132 # 80003b94 <__errno+0x6c>
80000bcc:	c79ff0ef          	jal	80000844 <printf>
80000bd0:	800057b7          	lui	x15,0x80005
80000bd4:	88c7a783          	lw	x15,-1908(x15) # 8000488c <Reg>
80000bd8:	4e078063          	beqz	x15,800010b8 <main+0x5b4>
80000bdc:	80004537          	lui	x10,0x80004
80000be0:	bb850513          	addi	x10,x10,-1096 # 80003bb8 <__errno+0x90>
80000be4:	c61ff0ef          	jal	80000844 <printf>
80000be8:	800045b7          	lui	x11,0x80004
80000bec:	80004537          	lui	x10,0x80004
80000bf0:	00100613          	li	x12,1
80000bf4:	c1458593          	addi	x11,x11,-1004 # 80003c14 <__errno+0xec>
80000bf8:	c1c50513          	addi	x10,x10,-996 # 80003c1c <__errno+0xf4>
80000bfc:	c49ff0ef          	jal	80000844 <printf>
80000c00:	800047b7          	lui	x15,0x80004
80000c04:	b8078513          	addi	x10,x15,-1152 # 80003b80 <__errno+0x58>
80000c08:	c3dff0ef          	jal	80000844 <printf>
80000c0c:	800077b7          	lui	x15,0x80007
80000c10:	1e07a423          	sw	x0,488(x15) # 800071e8 <Done>
80000c14:	00100993          	li	x19,1
80000c18:	80005cb7          	lui	x25,0x80005
80000c1c:	80007937          	lui	x18,0x80007
80000c20:	80007b37          	lui	x22,0x80007
80000c24:	80004bb7          	lui	x23,0x80004
80000c28:	ec5ff0ef          	jal	80000aec <Proc_5>
80000c2c:	e91ff0ef          	jal	80000abc <Proc_4>
80000c30:	800047b7          	lui	x15,0x80004
80000c34:	c3078593          	addi	x11,x15,-976 # 80003c30 <__errno+0x108>
80000c38:	fa040513          	addi	x10,x8,-96
80000c3c:	1a0010ef          	jal	80001ddc <strcpy>
80000c40:	00100793          	li	x15,1
80000c44:	fa040593          	addi	x11,x8,-96
80000c48:	f8040513          	addi	x10,x8,-128
80000c4c:	f6f42e23          	sw	x15,-132(x8)
80000c50:	f54ff0ef          	jal	800003a4 <Func_2>
80000c54:	80007737          	lui	x14,0x80007
80000c58:	00153793          	seqz	x15,x10
80000c5c:	f7840613          	addi	x12,x8,-136
80000c60:	00300593          	li	x11,3
80000c64:	00200513          	li	x10,2
80000c68:	1ef72823          	sw	x15,496(x14) # 800071f0 <Bool_Glob>
80000c6c:	e9cff0ef          	jal	80000308 <Proc_7>
80000c70:	f7842a83          	lw	x21,-136(x8)
80000c74:	00300793          	li	x15,3
80000c78:	00300613          	li	x12,3
80000c7c:	000a8693          	mv	x13,x21
80000c80:	964d8593          	addi	x11,x27,-1692
80000c84:	89cc8513          	addi	x10,x25,-1892 # 8000489c <Arr_1_Glob>
80000c88:	f6f42a23          	sw	x15,-140(x8)
80000c8c:	e8cff0ef          	jal	80000318 <Proc_8>
80000c90:	1fcc2503          	lw	x10,508(x24)
80000c94:	ccdff0ef          	jal	80000960 <Proc_1>
80000c98:	1ec94783          	lbu	x15,492(x18) # 800071ec <Ch_2_Glob>
80000c9c:	04000713          	li	x14,64
80000ca0:	40f77863          	bgeu	x14,x15,800010b0 <main+0x5ac>
80000ca4:	00100493          	li	x9,1
80000ca8:	04100d13          	li	x26,65
80000cac:	00300a13          	li	x20,3
80000cb0:	0180006f          	j	80000cc8 <main+0x1c4>
80000cb4:	1ec94703          	lbu	x14,492(x18)
80000cb8:	001d0793          	addi	x15,x26,1
80000cbc:	0ff7fd13          	zext.b	x26,x15
80000cc0:	05a76463          	bltu	x14,x26,80000d08 <main+0x204>
80000cc4:	f7c42483          	lw	x9,-132(x8)
80000cc8:	04300593          	li	x11,67
80000ccc:	000d0513          	mv	x10,x26
80000cd0:	eb0ff0ef          	jal	80000380 <Func_1>
80000cd4:	fe9510e3          	bne	x10,x9,80000cb4 <main+0x1b0>
80000cd8:	f7c40593          	addi	x11,x8,-132
80000cdc:	00000513          	li	x10,0
80000ce0:	f34ff0ef          	jal	80000414 <Proc_6>
80000ce4:	c50b8593          	addi	x11,x23,-944 # 80003c50 <__errno+0x128>
80000ce8:	fa040513          	addi	x10,x8,-96
80000cec:	0f0010ef          	jal	80001ddc <strcpy>
80000cf0:	1ec94703          	lbu	x14,492(x18)
80000cf4:	001d0793          	addi	x15,x26,1
80000cf8:	1f3b2a23          	sw	x19,500(x22) # 800071f4 <Int_Glob>
80000cfc:	0ff7fd13          	zext.b	x26,x15
80000d00:	00098a13          	mv	x20,x19
80000d04:	fda770e3          	bgeu	x14,x26,80000cc4 <main+0x1c0>
80000d08:	001a1493          	slli	x9,x20,0x1
80000d0c:	014484b3          	add	x9,x9,x20
80000d10:	0354ca33          	div	x20,x9,x21
80000d14:	f7440513          	addi	x10,x8,-140
80000d18:	00198993          	addi	x19,x19,1
80000d1c:	f7442a23          	sw	x20,-140(x8)
80000d20:	be5ff0ef          	jal	80000904 <Proc_2>
80000d24:	06500793          	li	x15,101
80000d28:	f0f990e3          	bne	x19,x15,80000c28 <main+0x124>
80000d2c:	00000513          	li	x10,0
80000d30:	7d5000ef          	jal	80001d04 <time>
80000d34:	00050713          	mv	x14,x10
80000d38:	80004537          	lui	x10,0x80004
80000d3c:	800077b7          	lui	x15,0x80007
80000d40:	c7050513          	addi	x10,x10,-912 # 80003c70 <__errno+0x148>
80000d44:	1ee7a023          	sw	x14,480(x15) # 800071e0 <End_Time>
80000d48:	afdff0ef          	jal	80000844 <printf>
80000d4c:	800047b7          	lui	x15,0x80004
80000d50:	b8078513          	addi	x10,x15,-1152 # 80003b80 <__errno+0x58>
80000d54:	af1ff0ef          	jal	80000844 <printf>
80000d58:	1f4b2583          	lw	x11,500(x22)
80000d5c:	80004537          	lui	x10,0x80004
80000d60:	ca850513          	addi	x10,x10,-856 # 80003ca8 <__errno+0x180>
80000d64:	800049b7          	lui	x19,0x80004
80000d68:	addff0ef          	jal	80000844 <printf>
80000d6c:	00500593          	li	x11,5
80000d70:	cc498513          	addi	x10,x19,-828 # 80003cc4 <__errno+0x19c>
80000d74:	ad1ff0ef          	jal	80000844 <printf>
80000d78:	80007737          	lui	x14,0x80007
80000d7c:	1f072583          	lw	x11,496(x14) # 800071f0 <Bool_Glob>
80000d80:	80004537          	lui	x10,0x80004
80000d84:	ce050513          	addi	x10,x10,-800 # 80003ce0 <__errno+0x1b8>
80000d88:	abdff0ef          	jal	80000844 <printf>
80000d8c:	00100593          	li	x11,1
80000d90:	cc498513          	addi	x10,x19,-828
80000d94:	ab1ff0ef          	jal	80000844 <printf>
80000d98:	800077b7          	lui	x15,0x80007
80000d9c:	1ed7c583          	lbu	x11,493(x15) # 800071ed <Ch_1_Glob>
80000da0:	80004537          	lui	x10,0x80004
80000da4:	cfc50513          	addi	x10,x10,-772 # 80003cfc <__errno+0x1d4>
80000da8:	a9dff0ef          	jal	80000844 <printf>
80000dac:	80004b37          	lui	x22,0x80004
80000db0:	04100593          	li	x11,65
80000db4:	d18b0513          	addi	x10,x22,-744 # 80003d18 <__errno+0x1f0>
80000db8:	a8dff0ef          	jal	80000844 <printf>
80000dbc:	1ec94583          	lbu	x11,492(x18)
80000dc0:	80004537          	lui	x10,0x80004
80000dc4:	d3450513          	addi	x10,x10,-716 # 80003d34 <__errno+0x20c>
80000dc8:	a7dff0ef          	jal	80000844 <printf>
80000dcc:	04200593          	li	x11,66
80000dd0:	d18b0513          	addi	x10,x22,-744
80000dd4:	a71ff0ef          	jal	80000844 <printf>
80000dd8:	89cc8c93          	addi	x25,x25,-1892
80000ddc:	020ca583          	lw	x11,32(x25)
80000de0:	80004537          	lui	x10,0x80004
80000de4:	d5050513          	addi	x10,x10,-688 # 80003d50 <__errno+0x228>
80000de8:	a5dff0ef          	jal	80000844 <printf>
80000dec:	00700593          	li	x11,7
80000df0:	cc498513          	addi	x10,x19,-828
80000df4:	a51ff0ef          	jal	80000844 <printf>
80000df8:	80005737          	lui	x14,0x80005
80000dfc:	96470713          	addi	x14,x14,-1692 # 80004964 <Arr_2_Glob>
80000e00:	65c72583          	lw	x11,1628(x14)
80000e04:	80004537          	lui	x10,0x80004
80000e08:	d6c50513          	addi	x10,x10,-660 # 80003d6c <__errno+0x244>
80000e0c:	a39ff0ef          	jal	80000844 <printf>
80000e10:	80004537          	lui	x10,0x80004
80000e14:	d8850513          	addi	x10,x10,-632 # 80003d88 <__errno+0x260>
80000e18:	a2dff0ef          	jal	80000844 <printf>
80000e1c:	80004537          	lui	x10,0x80004
80000e20:	db450513          	addi	x10,x10,-588 # 80003db4 <__errno+0x28c>
80000e24:	a21ff0ef          	jal	80000844 <printf>
80000e28:	1fcc2783          	lw	x15,508(x24)
80000e2c:	80004db7          	lui	x27,0x80004
80000e30:	dc0d8513          	addi	x10,x27,-576 # 80003dc0 <__errno+0x298>
80000e34:	0007a583          	lw	x11,0(x15)
80000e38:	80004d37          	lui	x26,0x80004
80000e3c:	80004cb7          	lui	x25,0x80004
80000e40:	a05ff0ef          	jal	80000844 <printf>
80000e44:	80004537          	lui	x10,0x80004
80000e48:	ddc50513          	addi	x10,x10,-548 # 80003ddc <__errno+0x2b4>
80000e4c:	9f9ff0ef          	jal	80000844 <printf>
80000e50:	1fcc2783          	lw	x15,508(x24)
80000e54:	e10d0513          	addi	x10,x26,-496 # 80003e10 <__errno+0x2e8>
80000e58:	80004bb7          	lui	x23,0x80004
80000e5c:	0047a583          	lw	x11,4(x15)
80000e60:	80004b37          	lui	x22,0x80004
80000e64:	80004937          	lui	x18,0x80004
80000e68:	9ddff0ef          	jal	80000844 <printf>
80000e6c:	00000593          	li	x11,0
80000e70:	cc498513          	addi	x10,x19,-828
80000e74:	9d1ff0ef          	jal	80000844 <printf>
80000e78:	1fcc2783          	lw	x15,508(x24)
80000e7c:	e2cc8513          	addi	x10,x25,-468 # 80003e2c <__errno+0x304>
80000e80:	415484b3          	sub	x9,x9,x21
80000e84:	0087a583          	lw	x11,8(x15)
80000e88:	9bdff0ef          	jal	80000844 <printf>
80000e8c:	00200593          	li	x11,2
80000e90:	cc498513          	addi	x10,x19,-828
80000e94:	9b1ff0ef          	jal	80000844 <printf>
80000e98:	1fcc2783          	lw	x15,508(x24)
80000e9c:	e48b8513          	addi	x10,x23,-440 # 80003e48 <__errno+0x320>
80000ea0:	00c7a583          	lw	x11,12(x15)
80000ea4:	9a1ff0ef          	jal	80000844 <printf>
80000ea8:	01100593          	li	x11,17
80000eac:	cc498513          	addi	x10,x19,-828
80000eb0:	995ff0ef          	jal	80000844 <printf>
80000eb4:	1fcc2583          	lw	x11,508(x24)
80000eb8:	e64b0513          	addi	x10,x22,-412 # 80003e64 <__errno+0x33c>
80000ebc:	80007c37          	lui	x24,0x80007
80000ec0:	01058593          	addi	x11,x11,16
80000ec4:	981ff0ef          	jal	80000844 <printf>
80000ec8:	e8090513          	addi	x10,x18,-384 # 80003e80 <__errno+0x358>
80000ecc:	979ff0ef          	jal	80000844 <printf>
80000ed0:	80004537          	lui	x10,0x80004
80000ed4:	eb850513          	addi	x10,x10,-328 # 80003eb8 <__errno+0x390>
80000ed8:	96dff0ef          	jal	80000844 <printf>
80000edc:	1f8c2783          	lw	x15,504(x24) # 800071f8 <Next_Ptr_Glob>
80000ee0:	dc0d8513          	addi	x10,x27,-576
80000ee4:	0007a583          	lw	x11,0(x15)
80000ee8:	95dff0ef          	jal	80000844 <printf>
80000eec:	80004537          	lui	x10,0x80004
80000ef0:	ecc50513          	addi	x10,x10,-308 # 80003ecc <__errno+0x3a4>
80000ef4:	951ff0ef          	jal	80000844 <printf>
80000ef8:	1f8c2783          	lw	x15,504(x24)
80000efc:	e10d0513          	addi	x10,x26,-496
80000f00:	0047a583          	lw	x11,4(x15)
80000f04:	941ff0ef          	jal	80000844 <printf>
80000f08:	00000593          	li	x11,0
80000f0c:	cc498513          	addi	x10,x19,-828
80000f10:	935ff0ef          	jal	80000844 <printf>
80000f14:	1f8c2783          	lw	x15,504(x24)
80000f18:	e2cc8513          	addi	x10,x25,-468
80000f1c:	0087a583          	lw	x11,8(x15)
80000f20:	925ff0ef          	jal	80000844 <printf>
80000f24:	00100593          	li	x11,1
80000f28:	cc498513          	addi	x10,x19,-828
80000f2c:	919ff0ef          	jal	80000844 <printf>
80000f30:	1f8c2783          	lw	x15,504(x24)
80000f34:	e48b8513          	addi	x10,x23,-440
80000f38:	00c7a583          	lw	x11,12(x15)
80000f3c:	909ff0ef          	jal	80000844 <printf>
80000f40:	01200593          	li	x11,18
80000f44:	cc498513          	addi	x10,x19,-828
80000f48:	8fdff0ef          	jal	80000844 <printf>
80000f4c:	1f8c2583          	lw	x11,504(x24)
80000f50:	e64b0513          	addi	x10,x22,-412
80000f54:	01058593          	addi	x11,x11,16
80000f58:	8edff0ef          	jal	80000844 <printf>
80000f5c:	e8090513          	addi	x10,x18,-384
80000f60:	8e5ff0ef          	jal	80000844 <printf>
80000f64:	f7442583          	lw	x11,-140(x8)
80000f68:	80004537          	lui	x10,0x80004
80000f6c:	f0c50513          	addi	x10,x10,-244 # 80003f0c <__errno+0x3e4>
80000f70:	8d5ff0ef          	jal	80000844 <printf>
80000f74:	00500593          	li	x11,5
80000f78:	cc498513          	addi	x10,x19,-828
80000f7c:	8c9ff0ef          	jal	80000844 <printf>
80000f80:	00349593          	slli	x11,x9,0x3
80000f84:	409585b3          	sub	x11,x11,x9
80000f88:	80004537          	lui	x10,0x80004
80000f8c:	414585b3          	sub	x11,x11,x20
80000f90:	f2850513          	addi	x10,x10,-216 # 80003f28 <__errno+0x400>
80000f94:	8b1ff0ef          	jal	80000844 <printf>
80000f98:	00d00593          	li	x11,13
80000f9c:	cc498513          	addi	x10,x19,-828
80000fa0:	8a5ff0ef          	jal	80000844 <printf>
80000fa4:	80004537          	lui	x10,0x80004
80000fa8:	000a8593          	mv	x11,x21
80000fac:	f4450513          	addi	x10,x10,-188 # 80003f44 <__errno+0x41c>
80000fb0:	895ff0ef          	jal	80000844 <printf>
80000fb4:	00700593          	li	x11,7
80000fb8:	cc498513          	addi	x10,x19,-828
80000fbc:	889ff0ef          	jal	80000844 <printf>
80000fc0:	f7c42583          	lw	x11,-132(x8)
80000fc4:	80004537          	lui	x10,0x80004
80000fc8:	f6050513          	addi	x10,x10,-160 # 80003f60 <__errno+0x438>
80000fcc:	879ff0ef          	jal	80000844 <printf>
80000fd0:	00100593          	li	x11,1
80000fd4:	cc498513          	addi	x10,x19,-828
80000fd8:	86dff0ef          	jal	80000844 <printf>
80000fdc:	80004537          	lui	x10,0x80004
80000fe0:	f8040593          	addi	x11,x8,-128
80000fe4:	f7c50513          	addi	x10,x10,-132 # 80003f7c <__errno+0x454>
80000fe8:	85dff0ef          	jal	80000844 <printf>
80000fec:	80004537          	lui	x10,0x80004
80000ff0:	f9850513          	addi	x10,x10,-104 # 80003f98 <__errno+0x470>
80000ff4:	851ff0ef          	jal	80000844 <printf>
80000ff8:	80004537          	lui	x10,0x80004
80000ffc:	fa040593          	addi	x11,x8,-96
80001000:	fd050513          	addi	x10,x10,-48 # 80003fd0 <__errno+0x4a8>
80001004:	841ff0ef          	jal	80000844 <printf>
80001008:	80004537          	lui	x10,0x80004
8000100c:	fec50513          	addi	x10,x10,-20 # 80003fec <__errno+0x4c4>
80001010:	835ff0ef          	jal	80000844 <printf>
80001014:	800047b7          	lui	x15,0x80004
80001018:	b8078513          	addi	x10,x15,-1152 # 80003b80 <__errno+0x58>
8000101c:	829ff0ef          	jal	80000844 <printf>
80001020:	800077b7          	lui	x15,0x80007
80001024:	1dc7a683          	lw	x13,476(x15) # 800071dc <User_Time>
80001028:	06400793          	li	x15,100
8000102c:	000f4737          	lui	x14,0xf4
80001030:	02f6c5b3          	div	x11,x13,x15
80001034:	24070713          	addi	x14,x14,576 # f4240 <_start-0x7ff0bdc0>
80001038:	800074b7          	lui	x9,0x80007
8000103c:	80004537          	lui	x10,0x80004
80001040:	02450513          	addi	x10,x10,36 # 80004024 <__errno+0x4fc>
80001044:	02d7c7b3          	div	x15,x15,x13
80001048:	02e585b3          	mul	x11,x11,x14
8000104c:	1cf4aa23          	sw	x15,468(x9) # 800071d4 <Dhrystones_Per_Second>
80001050:	800077b7          	lui	x15,0x80007
80001054:	1cb7ac23          	sw	x11,472(x15) # 800071d8 <Microseconds>
80001058:	fecff0ef          	jal	80000844 <printf>
8000105c:	1d44a583          	lw	x11,468(x9)
80001060:	80004537          	lui	x10,0x80004
80001064:	05850513          	addi	x10,x10,88 # 80004058 <__errno+0x530>
80001068:	fdcff0ef          	jal	80000844 <printf>
8000106c:	f7040113          	addi	x2,x8,-144
80001070:	08c12083          	lw	x1,140(x2)
80001074:	08812403          	lw	x8,136(x2)
80001078:	08412483          	lw	x9,132(x2)
8000107c:	08012903          	lw	x18,128(x2)
80001080:	07c12983          	lw	x19,124(x2)
80001084:	07812a03          	lw	x20,120(x2)
80001088:	07412a83          	lw	x21,116(x2)
8000108c:	07012b03          	lw	x22,112(x2)
80001090:	06c12b83          	lw	x23,108(x2)
80001094:	06812c03          	lw	x24,104(x2)
80001098:	06412c83          	lw	x25,100(x2)
8000109c:	06012d03          	lw	x26,96(x2)
800010a0:	05c12d83          	lw	x27,92(x2)
800010a4:	00000513          	li	x10,0
800010a8:	09010113          	addi	x2,x2,144
800010ac:	00008067          	ret
800010b0:	00900493          	li	x9,9
800010b4:	c5dff06f          	j	80000d10 <main+0x20c>
800010b8:	80004537          	lui	x10,0x80004
800010bc:	be450513          	addi	x10,x10,-1052 # 80003be4 <__errno+0xbc>
800010c0:	f84ff0ef          	jal	80000844 <printf>
800010c4:	b25ff06f          	j	80000be8 <main+0xe4>

800010c8 <__moddi3>:
800010c8:	00058e13          	mv	x28,x11
800010cc:	00000813          	li	x16,0
800010d0:	0005dc63          	bgez	x11,800010e8 <__moddi3+0x20>
800010d4:	00a037b3          	snez	x15,x10
800010d8:	40b00e33          	neg	x28,x11
800010dc:	40fe0e33          	sub	x28,x28,x15
800010e0:	40a00533          	neg	x10,x10
800010e4:	fff00813          	li	x16,-1
800010e8:	0006da63          	bgez	x13,800010fc <__moddi3+0x34>
800010ec:	00c037b3          	snez	x15,x12
800010f0:	40d006b3          	neg	x13,x13
800010f4:	40f686b3          	sub	x13,x13,x15
800010f8:	40c00633          	neg	x12,x12
800010fc:	00060893          	mv	x17,x12
80001100:	00050793          	mv	x15,x10
80001104:	000e0593          	mv	x11,x28
80001108:	22069063          	bnez	x13,80001328 <__moddi3+0x260>
8000110c:	80004737          	lui	x14,0x80004
80001110:	1e470713          	addi	x14,x14,484 # 800041e4 <__clz_tab>
80001114:	0ece7663          	bgeu	x28,x12,80001200 <__moddi3+0x138>
80001118:	000106b7          	lui	x13,0x10
8000111c:	0cd67863          	bgeu	x12,x13,800011ec <__moddi3+0x124>
80001120:	10063693          	sltiu	x13,x12,256
80001124:	0016b693          	seqz	x13,x13
80001128:	00369693          	slli	x13,x13,0x3
8000112c:	00d65333          	srl	x6,x12,x13
80001130:	00670733          	add	x14,x14,x6
80001134:	00074703          	lbu	x14,0(x14)
80001138:	00d70733          	add	x14,x14,x13
8000113c:	02000693          	li	x13,32
80001140:	40e68333          	sub	x6,x13,x14
80001144:	00e68c63          	beq	x13,x14,8000115c <__moddi3+0x94>
80001148:	006e15b3          	sll	x11,x28,x6
8000114c:	00e55733          	srl	x14,x10,x14
80001150:	006618b3          	sll	x17,x12,x6
80001154:	00b765b3          	or	x11,x14,x11
80001158:	006517b3          	sll	x15,x10,x6
8000115c:	0108d613          	srli	x12,x17,0x10
80001160:	02c5d6b3          	divu	x13,x11,x12
80001164:	01089513          	slli	x10,x17,0x10
80001168:	01055513          	srli	x10,x10,0x10
8000116c:	0107d713          	srli	x14,x15,0x10
80001170:	02c5f5b3          	remu	x11,x11,x12
80001174:	02a686b3          	mul	x13,x13,x10
80001178:	01059593          	slli	x11,x11,0x10
8000117c:	00b76733          	or	x14,x14,x11
80001180:	00d77a63          	bgeu	x14,x13,80001194 <__moddi3+0xcc>
80001184:	00e88733          	add	x14,x17,x14
80001188:	01176663          	bltu	x14,x17,80001194 <__moddi3+0xcc>
8000118c:	00d77463          	bgeu	x14,x13,80001194 <__moddi3+0xcc>
80001190:	01170733          	add	x14,x14,x17
80001194:	40d70733          	sub	x14,x14,x13
80001198:	02c756b3          	divu	x13,x14,x12
8000119c:	02c77733          	remu	x14,x14,x12
800011a0:	02a686b3          	mul	x13,x13,x10
800011a4:	01079793          	slli	x15,x15,0x10
800011a8:	01071713          	slli	x14,x14,0x10
800011ac:	0107d793          	srli	x15,x15,0x10
800011b0:	00e7e7b3          	or	x15,x15,x14
800011b4:	00d7fa63          	bgeu	x15,x13,800011c8 <__moddi3+0x100>
800011b8:	00f887b3          	add	x15,x17,x15
800011bc:	0117e663          	bltu	x15,x17,800011c8 <__moddi3+0x100>
800011c0:	00d7f463          	bgeu	x15,x13,800011c8 <__moddi3+0x100>
800011c4:	011787b3          	add	x15,x15,x17
800011c8:	40d787b3          	sub	x15,x15,x13
800011cc:	0067d533          	srl	x10,x15,x6
800011d0:	00000593          	li	x11,0
800011d4:	00080a63          	beqz	x16,800011e8 <__moddi3+0x120>
800011d8:	00a037b3          	snez	x15,x10
800011dc:	40b005b3          	neg	x11,x11
800011e0:	40f585b3          	sub	x11,x11,x15
800011e4:	40a00533          	neg	x10,x10
800011e8:	00008067          	ret
800011ec:	01000337          	lui	x6,0x1000
800011f0:	01800693          	li	x13,24
800011f4:	f2667ce3          	bgeu	x12,x6,8000112c <__moddi3+0x64>
800011f8:	01000693          	li	x13,16
800011fc:	f31ff06f          	j	8000112c <__moddi3+0x64>
80001200:	00000693          	li	x13,0
80001204:	00060c63          	beqz	x12,8000121c <__moddi3+0x154>
80001208:	000106b7          	lui	x13,0x10
8000120c:	06d67e63          	bgeu	x12,x13,80001288 <__moddi3+0x1c0>
80001210:	10063693          	sltiu	x13,x12,256
80001214:	0016b693          	seqz	x13,x13
80001218:	00369693          	slli	x13,x13,0x3
8000121c:	00d655b3          	srl	x11,x12,x13
80001220:	00b70733          	add	x14,x14,x11
80001224:	00074703          	lbu	x14,0(x14)
80001228:	00d70733          	add	x14,x14,x13
8000122c:	02000693          	li	x13,32
80001230:	40e68333          	sub	x6,x13,x14
80001234:	06e69463          	bne	x13,x14,8000129c <__moddi3+0x1d4>
80001238:	40ce0733          	sub	x14,x28,x12
8000123c:	0108d593          	srli	x11,x17,0x10
80001240:	02b75633          	divu	x12,x14,x11
80001244:	01089513          	slli	x10,x17,0x10
80001248:	01055513          	srli	x10,x10,0x10
8000124c:	0107d693          	srli	x13,x15,0x10
80001250:	02b77733          	remu	x14,x14,x11
80001254:	02a60633          	mul	x12,x12,x10
80001258:	01071713          	slli	x14,x14,0x10
8000125c:	00e6e733          	or	x14,x13,x14
80001260:	00c77a63          	bgeu	x14,x12,80001274 <__moddi3+0x1ac>
80001264:	00e88733          	add	x14,x17,x14
80001268:	01176663          	bltu	x14,x17,80001274 <__moddi3+0x1ac>
8000126c:	00c77463          	bgeu	x14,x12,80001274 <__moddi3+0x1ac>
80001270:	01170733          	add	x14,x14,x17
80001274:	40c70733          	sub	x14,x14,x12
80001278:	02b756b3          	divu	x13,x14,x11
8000127c:	02b77733          	remu	x14,x14,x11
80001280:	02a686b3          	mul	x13,x13,x10
80001284:	f21ff06f          	j	800011a4 <__moddi3+0xdc>
80001288:	010005b7          	lui	x11,0x1000
8000128c:	01800693          	li	x13,24
80001290:	f8b676e3          	bgeu	x12,x11,8000121c <__moddi3+0x154>
80001294:	01000693          	li	x13,16
80001298:	f85ff06f          	j	8000121c <__moddi3+0x154>
8000129c:	006618b3          	sll	x17,x12,x6
800012a0:	00ee56b3          	srl	x13,x28,x14
800012a4:	006517b3          	sll	x15,x10,x6
800012a8:	00e55733          	srl	x14,x10,x14
800012ac:	0108d513          	srli	x10,x17,0x10
800012b0:	02a6d5b3          	divu	x11,x13,x10
800012b4:	006e1e33          	sll	x28,x28,x6
800012b8:	01c76733          	or	x14,x14,x28
800012bc:	01089e13          	slli	x28,x17,0x10
800012c0:	010e5e13          	srli	x28,x28,0x10
800012c4:	02a6f6b3          	remu	x13,x13,x10
800012c8:	03c585b3          	mul	x11,x11,x28
800012cc:	01069613          	slli	x12,x13,0x10
800012d0:	01075693          	srli	x13,x14,0x10
800012d4:	00c6e6b3          	or	x13,x13,x12
800012d8:	00b6fa63          	bgeu	x13,x11,800012ec <__moddi3+0x224>
800012dc:	00d886b3          	add	x13,x17,x13
800012e0:	0116e663          	bltu	x13,x17,800012ec <__moddi3+0x224>
800012e4:	00b6f463          	bgeu	x13,x11,800012ec <__moddi3+0x224>
800012e8:	011686b3          	add	x13,x13,x17
800012ec:	40b686b3          	sub	x13,x13,x11
800012f0:	02a6d633          	divu	x12,x13,x10
800012f4:	01071713          	slli	x14,x14,0x10
800012f8:	01075713          	srli	x14,x14,0x10
800012fc:	02a6f6b3          	remu	x13,x13,x10
80001300:	03c60633          	mul	x12,x12,x28
80001304:	01069693          	slli	x13,x13,0x10
80001308:	00d76733          	or	x14,x14,x13
8000130c:	00c77a63          	bgeu	x14,x12,80001320 <__moddi3+0x258>
80001310:	00e88733          	add	x14,x17,x14
80001314:	01176663          	bltu	x14,x17,80001320 <__moddi3+0x258>
80001318:	00c77463          	bgeu	x14,x12,80001320 <__moddi3+0x258>
8000131c:	01170733          	add	x14,x14,x17
80001320:	40c70733          	sub	x14,x14,x12
80001324:	f19ff06f          	j	8000123c <__moddi3+0x174>
80001328:	eade66e3          	bltu	x28,x13,800011d4 <__moddi3+0x10c>
8000132c:	00010737          	lui	x14,0x10
80001330:	04e6fc63          	bgeu	x13,x14,80001388 <__moddi3+0x2c0>
80001334:	1006b713          	sltiu	x14,x13,256
80001338:	00173713          	seqz	x14,x14
8000133c:	00371713          	slli	x14,x14,0x3
80001340:	800048b7          	lui	x17,0x80004
80001344:	00e6d333          	srl	x6,x13,x14
80001348:	1e488893          	addi	x17,x17,484 # 800041e4 <__clz_tab>
8000134c:	006888b3          	add	x17,x17,x6
80001350:	0008c883          	lbu	x17,0(x17)
80001354:	02000313          	li	x6,32
80001358:	00e888b3          	add	x17,x17,x14
8000135c:	41130733          	sub	x14,x6,x17
80001360:	03131e63          	bne	x6,x17,8000139c <__moddi3+0x2d4>
80001364:	01c6e463          	bltu	x13,x28,8000136c <__moddi3+0x2a4>
80001368:	00c56c63          	bltu	x10,x12,80001380 <__moddi3+0x2b8>
8000136c:	40c50633          	sub	x12,x10,x12
80001370:	40de06b3          	sub	x13,x28,x13
80001374:	00c535b3          	sltu	x11,x10,x12
80001378:	00060793          	mv	x15,x12
8000137c:	40b685b3          	sub	x11,x13,x11
80001380:	00078513          	mv	x10,x15
80001384:	e51ff06f          	j	800011d4 <__moddi3+0x10c>
80001388:	010008b7          	lui	x17,0x1000
8000138c:	01800713          	li	x14,24
80001390:	fb16f8e3          	bgeu	x13,x17,80001340 <__moddi3+0x278>
80001394:	01000713          	li	x14,16
80001398:	fa9ff06f          	j	80001340 <__moddi3+0x278>
8000139c:	00e696b3          	sll	x13,x13,x14
800013a0:	01165333          	srl	x6,x12,x17
800013a4:	00d36333          	or	x6,x6,x13
800013a8:	011e57b3          	srl	x15,x28,x17
800013ac:	01035e93          	srli	x29,x6,0x10
800013b0:	03d7dfb3          	divu	x31,x15,x29
800013b4:	00ee1e33          	sll	x28,x28,x14
800013b8:	011555b3          	srl	x11,x10,x17
800013bc:	01c5e5b3          	or	x11,x11,x28
800013c0:	01031e13          	slli	x28,x6,0x10
800013c4:	010e5e13          	srli	x28,x28,0x10
800013c8:	00e61633          	sll	x12,x12,x14
800013cc:	00e51533          	sll	x10,x10,x14
800013d0:	03d7f7b3          	remu	x15,x15,x29
800013d4:	03fe0f33          	mul	x30,x28,x31
800013d8:	01079693          	slli	x13,x15,0x10
800013dc:	0105d793          	srli	x15,x11,0x10
800013e0:	00d7e7b3          	or	x15,x15,x13
800013e4:	000f8693          	mv	x13,x31
800013e8:	01e7fe63          	bgeu	x15,x30,80001404 <__moddi3+0x33c>
800013ec:	00f307b3          	add	x15,x6,x15
800013f0:	ffff8693          	addi	x13,x31,-1
800013f4:	0067e863          	bltu	x15,x6,80001404 <__moddi3+0x33c>
800013f8:	01e7f663          	bgeu	x15,x30,80001404 <__moddi3+0x33c>
800013fc:	ffef8693          	addi	x13,x31,-2
80001400:	006787b3          	add	x15,x15,x6
80001404:	41e787b3          	sub	x15,x15,x30
80001408:	03d7df33          	divu	x30,x15,x29
8000140c:	01059593          	slli	x11,x11,0x10
80001410:	0105d593          	srli	x11,x11,0x10
80001414:	03d7f7b3          	remu	x15,x15,x29
80001418:	03ee0e33          	mul	x28,x28,x30
8000141c:	01079793          	slli	x15,x15,0x10
80001420:	00f5e5b3          	or	x11,x11,x15
80001424:	000f0793          	mv	x15,x30
80001428:	01c5fe63          	bgeu	x11,x28,80001444 <__moddi3+0x37c>
8000142c:	00b305b3          	add	x11,x6,x11
80001430:	ffff0793          	addi	x15,x30,-1
80001434:	0065e863          	bltu	x11,x6,80001444 <__moddi3+0x37c>
80001438:	01c5f663          	bgeu	x11,x28,80001444 <__moddi3+0x37c>
8000143c:	ffef0793          	addi	x15,x30,-2
80001440:	006585b3          	add	x11,x11,x6
80001444:	01069693          	slli	x13,x13,0x10
80001448:	00010fb7          	lui	x31,0x10
8000144c:	00f6e6b3          	or	x13,x13,x15
80001450:	41c585b3          	sub	x11,x11,x28
80001454:	ffff8e13          	addi	x28,x31,-1 # ffff <_start-0x7fff0001>
80001458:	01c6f7b3          	and	x15,x13,x28
8000145c:	01065e93          	srli	x29,x12,0x10
80001460:	0106d693          	srli	x13,x13,0x10
80001464:	01c67e33          	and	x28,x12,x28
80001468:	03c78f33          	mul	x30,x15,x28
8000146c:	03c68e33          	mul	x28,x13,x28
80001470:	03d787b3          	mul	x15,x15,x29
80001474:	03d686b3          	mul	x13,x13,x29
80001478:	01c78eb3          	add	x29,x15,x28
8000147c:	010f5793          	srli	x15,x30,0x10
80001480:	01d787b3          	add	x15,x15,x29
80001484:	01c7f463          	bgeu	x15,x28,8000148c <__moddi3+0x3c4>
80001488:	01f686b3          	add	x13,x13,x31
8000148c:	0107de13          	srli	x28,x15,0x10
80001490:	00de06b3          	add	x13,x28,x13
80001494:	00010e37          	lui	x28,0x10
80001498:	fffe0e13          	addi	x28,x28,-1 # ffff <_start-0x7fff0001>
8000149c:	01c7f7b3          	and	x15,x15,x28
800014a0:	01079793          	slli	x15,x15,0x10
800014a4:	01cf7f33          	and	x30,x30,x28
800014a8:	01e787b3          	add	x15,x15,x30
800014ac:	00d5e663          	bltu	x11,x13,800014b8 <__moddi3+0x3f0>
800014b0:	00d59e63          	bne	x11,x13,800014cc <__moddi3+0x404>
800014b4:	00f57c63          	bgeu	x10,x15,800014cc <__moddi3+0x404>
800014b8:	40c78633          	sub	x12,x15,x12
800014bc:	00c7be33          	sltu	x28,x15,x12
800014c0:	00060793          	mv	x15,x12
800014c4:	006e0633          	add	x12,x28,x6
800014c8:	40c686b3          	sub	x13,x13,x12
800014cc:	40f507b3          	sub	x15,x10,x15
800014d0:	00f53533          	sltu	x10,x10,x15
800014d4:	40d585b3          	sub	x11,x11,x13
800014d8:	40a585b3          	sub	x11,x11,x10
800014dc:	011598b3          	sll	x17,x11,x17
800014e0:	00e7d7b3          	srl	x15,x15,x14
800014e4:	00f8e533          	or	x10,x17,x15
800014e8:	00e5d5b3          	srl	x11,x11,x14
800014ec:	ce9ff06f          	j	800011d4 <__moddi3+0x10c>

800014f0 <__udivdi3>:
800014f0:	00050893          	mv	x17,x10
800014f4:	00058313          	mv	x6,x11
800014f8:	00060713          	mv	x14,x12
800014fc:	00050813          	mv	x16,x10
80001500:	00058793          	mv	x15,x11
80001504:	28069263          	bnez	x13,80001788 <__udivdi3+0x298>
80001508:	800045b7          	lui	x11,0x80004
8000150c:	1e458593          	addi	x11,x11,484 # 800041e4 <__clz_tab>
80001510:	0ec37663          	bgeu	x6,x12,800015fc <__udivdi3+0x10c>
80001514:	000106b7          	lui	x13,0x10
80001518:	0cd67863          	bgeu	x12,x13,800015e8 <__udivdi3+0xf8>
8000151c:	10063693          	sltiu	x13,x12,256
80001520:	0016b693          	seqz	x13,x13
80001524:	00369693          	slli	x13,x13,0x3
80001528:	00d65533          	srl	x10,x12,x13
8000152c:	00a585b3          	add	x11,x11,x10
80001530:	0005c583          	lbu	x11,0(x11)
80001534:	02000513          	li	x10,32
80001538:	00d586b3          	add	x13,x11,x13
8000153c:	40d505b3          	sub	x11,x10,x13
80001540:	00d50c63          	beq	x10,x13,80001558 <__udivdi3+0x68>
80001544:	00b317b3          	sll	x15,x6,x11
80001548:	00d8d6b3          	srl	x13,x17,x13
8000154c:	00b61733          	sll	x14,x12,x11
80001550:	00f6e7b3          	or	x15,x13,x15
80001554:	00b89833          	sll	x16,x17,x11
80001558:	01075593          	srli	x11,x14,0x10
8000155c:	02b7d333          	divu	x6,x15,x11
80001560:	01071613          	slli	x12,x14,0x10
80001564:	01065613          	srli	x12,x12,0x10
80001568:	02b7f7b3          	remu	x15,x15,x11
8000156c:	00030513          	mv	x10,x6
80001570:	026608b3          	mul	x17,x12,x6
80001574:	01079693          	slli	x13,x15,0x10
80001578:	01085793          	srli	x15,x16,0x10
8000157c:	00d7e7b3          	or	x15,x15,x13
80001580:	0117fe63          	bgeu	x15,x17,8000159c <__udivdi3+0xac>
80001584:	00f707b3          	add	x15,x14,x15
80001588:	fff30513          	addi	x10,x6,-1 # ffffff <_start-0x7f000001>
8000158c:	00e7e863          	bltu	x15,x14,8000159c <__udivdi3+0xac>
80001590:	0117f663          	bgeu	x15,x17,8000159c <__udivdi3+0xac>
80001594:	ffe30513          	addi	x10,x6,-2
80001598:	00e787b3          	add	x15,x15,x14
8000159c:	411787b3          	sub	x15,x15,x17
800015a0:	02b7d8b3          	divu	x17,x15,x11
800015a4:	01081813          	slli	x16,x16,0x10
800015a8:	01085813          	srli	x16,x16,0x10
800015ac:	02b7f7b3          	remu	x15,x15,x11
800015b0:	031606b3          	mul	x13,x12,x17
800015b4:	01079793          	slli	x15,x15,0x10
800015b8:	00f86833          	or	x16,x16,x15
800015bc:	00088793          	mv	x15,x17
800015c0:	00d87c63          	bgeu	x16,x13,800015d8 <__udivdi3+0xe8>
800015c4:	01070833          	add	x16,x14,x16
800015c8:	fff88793          	addi	x15,x17,-1 # ffffff <_start-0x7f000001>
800015cc:	00e86663          	bltu	x16,x14,800015d8 <__udivdi3+0xe8>
800015d0:	00d87463          	bgeu	x16,x13,800015d8 <__udivdi3+0xe8>
800015d4:	ffe88793          	addi	x15,x17,-2
800015d8:	01051513          	slli	x10,x10,0x10
800015dc:	00f56533          	or	x10,x10,x15
800015e0:	00000593          	li	x11,0
800015e4:	00008067          	ret
800015e8:	01000537          	lui	x10,0x1000
800015ec:	01800693          	li	x13,24
800015f0:	f2a67ce3          	bgeu	x12,x10,80001528 <__udivdi3+0x38>
800015f4:	01000693          	li	x13,16
800015f8:	f31ff06f          	j	80001528 <__udivdi3+0x38>
800015fc:	00000693          	li	x13,0
80001600:	00060c63          	beqz	x12,80001618 <__udivdi3+0x128>
80001604:	000107b7          	lui	x15,0x10
80001608:	0cf67063          	bgeu	x12,x15,800016c8 <__udivdi3+0x1d8>
8000160c:	10063693          	sltiu	x13,x12,256
80001610:	0016b693          	seqz	x13,x13
80001614:	00369693          	slli	x13,x13,0x3
80001618:	00d657b3          	srl	x15,x12,x13
8000161c:	00f585b3          	add	x11,x11,x15
80001620:	0005c783          	lbu	x15,0(x11)
80001624:	00d787b3          	add	x15,x15,x13
80001628:	02000693          	li	x13,32
8000162c:	40f685b3          	sub	x11,x13,x15
80001630:	0af69663          	bne	x13,x15,800016dc <__udivdi3+0x1ec>
80001634:	40c307b3          	sub	x15,x6,x12
80001638:	00100593          	li	x11,1
8000163c:	01075893          	srli	x17,x14,0x10
80001640:	0317de33          	divu	x28,x15,x17
80001644:	01071613          	slli	x12,x14,0x10
80001648:	01065613          	srli	x12,x12,0x10
8000164c:	01085693          	srli	x13,x16,0x10
80001650:	0317f7b3          	remu	x15,x15,x17
80001654:	000e0513          	mv	x10,x28
80001658:	03c60333          	mul	x6,x12,x28
8000165c:	01079793          	slli	x15,x15,0x10
80001660:	00f6e7b3          	or	x15,x13,x15
80001664:	0067fe63          	bgeu	x15,x6,80001680 <__udivdi3+0x190>
80001668:	00f707b3          	add	x15,x14,x15
8000166c:	fffe0513          	addi	x10,x28,-1
80001670:	00e7e863          	bltu	x15,x14,80001680 <__udivdi3+0x190>
80001674:	0067f663          	bgeu	x15,x6,80001680 <__udivdi3+0x190>
80001678:	ffee0513          	addi	x10,x28,-2
8000167c:	00e787b3          	add	x15,x15,x14
80001680:	406787b3          	sub	x15,x15,x6
80001684:	0317d333          	divu	x6,x15,x17
80001688:	01081813          	slli	x16,x16,0x10
8000168c:	01085813          	srli	x16,x16,0x10
80001690:	0317f7b3          	remu	x15,x15,x17
80001694:	026606b3          	mul	x13,x12,x6
80001698:	01079793          	slli	x15,x15,0x10
8000169c:	00f86833          	or	x16,x16,x15
800016a0:	00030793          	mv	x15,x6
800016a4:	00d87c63          	bgeu	x16,x13,800016bc <__udivdi3+0x1cc>
800016a8:	01070833          	add	x16,x14,x16
800016ac:	fff30793          	addi	x15,x6,-1
800016b0:	00e86663          	bltu	x16,x14,800016bc <__udivdi3+0x1cc>
800016b4:	00d87463          	bgeu	x16,x13,800016bc <__udivdi3+0x1cc>
800016b8:	ffe30793          	addi	x15,x6,-2
800016bc:	01051513          	slli	x10,x10,0x10
800016c0:	00f56533          	or	x10,x10,x15
800016c4:	00008067          	ret
800016c8:	010007b7          	lui	x15,0x1000
800016cc:	01800693          	li	x13,24
800016d0:	f4f674e3          	bgeu	x12,x15,80001618 <__udivdi3+0x128>
800016d4:	01000693          	li	x13,16
800016d8:	f41ff06f          	j	80001618 <__udivdi3+0x128>
800016dc:	00b61733          	sll	x14,x12,x11
800016e0:	00f356b3          	srl	x13,x6,x15
800016e4:	01075513          	srli	x10,x14,0x10
800016e8:	00b31333          	sll	x6,x6,x11
800016ec:	00f8d7b3          	srl	x15,x17,x15
800016f0:	0067e7b3          	or	x15,x15,x6
800016f4:	02a6d333          	divu	x6,x13,x10
800016f8:	01071613          	slli	x12,x14,0x10
800016fc:	01065613          	srli	x12,x12,0x10
80001700:	00b89833          	sll	x16,x17,x11
80001704:	02a6f6b3          	remu	x13,x13,x10
80001708:	026608b3          	mul	x17,x12,x6
8000170c:	01069593          	slli	x11,x13,0x10
80001710:	0107d693          	srli	x13,x15,0x10
80001714:	00b6e6b3          	or	x13,x13,x11
80001718:	00030593          	mv	x11,x6
8000171c:	0116fe63          	bgeu	x13,x17,80001738 <__udivdi3+0x248>
80001720:	00d706b3          	add	x13,x14,x13
80001724:	fff30593          	addi	x11,x6,-1
80001728:	00e6e863          	bltu	x13,x14,80001738 <__udivdi3+0x248>
8000172c:	0116f663          	bgeu	x13,x17,80001738 <__udivdi3+0x248>
80001730:	ffe30593          	addi	x11,x6,-2
80001734:	00e686b3          	add	x13,x13,x14
80001738:	411686b3          	sub	x13,x13,x17
8000173c:	02a6d8b3          	divu	x17,x13,x10
80001740:	01079793          	slli	x15,x15,0x10
80001744:	0107d793          	srli	x15,x15,0x10
80001748:	02a6f6b3          	remu	x13,x13,x10
8000174c:	03160633          	mul	x12,x12,x17
80001750:	01069693          	slli	x13,x13,0x10
80001754:	00d7e7b3          	or	x15,x15,x13
80001758:	00088693          	mv	x13,x17
8000175c:	00c7fe63          	bgeu	x15,x12,80001778 <__udivdi3+0x288>
80001760:	00f707b3          	add	x15,x14,x15
80001764:	fff88693          	addi	x13,x17,-1
80001768:	00e7e863          	bltu	x15,x14,80001778 <__udivdi3+0x288>
8000176c:	00c7f663          	bgeu	x15,x12,80001778 <__udivdi3+0x288>
80001770:	ffe88693          	addi	x13,x17,-2
80001774:	00e787b3          	add	x15,x15,x14
80001778:	01059593          	slli	x11,x11,0x10
8000177c:	40c787b3          	sub	x15,x15,x12
80001780:	00d5e5b3          	or	x11,x11,x13
80001784:	eb9ff06f          	j	8000163c <__udivdi3+0x14c>
80001788:	18d5e663          	bltu	x11,x13,80001914 <__udivdi3+0x424>
8000178c:	000107b7          	lui	x15,0x10
80001790:	04f6f463          	bgeu	x13,x15,800017d8 <__udivdi3+0x2e8>
80001794:	1006b713          	sltiu	x14,x13,256
80001798:	00173713          	seqz	x14,x14
8000179c:	00371713          	slli	x14,x14,0x3
800017a0:	800047b7          	lui	x15,0x80004
800017a4:	00e6d5b3          	srl	x11,x13,x14
800017a8:	1e478793          	addi	x15,x15,484 # 800041e4 <__clz_tab>
800017ac:	00b787b3          	add	x15,x15,x11
800017b0:	0007c783          	lbu	x15,0(x15)
800017b4:	00e787b3          	add	x15,x15,x14
800017b8:	02000713          	li	x14,32
800017bc:	40f705b3          	sub	x11,x14,x15
800017c0:	02f71663          	bne	x14,x15,800017ec <__udivdi3+0x2fc>
800017c4:	00100513          	li	x10,1
800017c8:	e066eee3          	bltu	x13,x6,800015e4 <__udivdi3+0xf4>
800017cc:	00c8b533          	sltu	x10,x17,x12
800017d0:	00153513          	seqz	x10,x10
800017d4:	00008067          	ret
800017d8:	010007b7          	lui	x15,0x1000
800017dc:	01800713          	li	x14,24
800017e0:	fcf6f0e3          	bgeu	x13,x15,800017a0 <__udivdi3+0x2b0>
800017e4:	01000713          	li	x14,16
800017e8:	fb9ff06f          	j	800017a0 <__udivdi3+0x2b0>
800017ec:	00f65733          	srl	x14,x12,x15
800017f0:	00b696b3          	sll	x13,x13,x11
800017f4:	00d766b3          	or	x13,x14,x13
800017f8:	00f35733          	srl	x14,x6,x15
800017fc:	00b31333          	sll	x6,x6,x11
80001800:	00f8d7b3          	srl	x15,x17,x15
80001804:	0067e7b3          	or	x15,x15,x6
80001808:	0106d313          	srli	x6,x13,0x10
8000180c:	02675eb3          	divu	x29,x14,x6
80001810:	01069813          	slli	x16,x13,0x10
80001814:	01085813          	srli	x16,x16,0x10
80001818:	00b61633          	sll	x12,x12,x11
8000181c:	02677733          	remu	x14,x14,x6
80001820:	03d80e33          	mul	x28,x16,x29
80001824:	01071513          	slli	x10,x14,0x10
80001828:	0107d713          	srli	x14,x15,0x10
8000182c:	00a76733          	or	x14,x14,x10
80001830:	000e8513          	mv	x10,x29
80001834:	01c77e63          	bgeu	x14,x28,80001850 <__udivdi3+0x360>
80001838:	00e68733          	add	x14,x13,x14
8000183c:	fffe8513          	addi	x10,x29,-1
80001840:	00d76863          	bltu	x14,x13,80001850 <__udivdi3+0x360>
80001844:	01c77663          	bgeu	x14,x28,80001850 <__udivdi3+0x360>
80001848:	ffee8513          	addi	x10,x29,-2
8000184c:	00d70733          	add	x14,x14,x13
80001850:	41c70733          	sub	x14,x14,x28
80001854:	02675e33          	divu	x28,x14,x6
80001858:	01079793          	slli	x15,x15,0x10
8000185c:	0107d793          	srli	x15,x15,0x10
80001860:	02677733          	remu	x14,x14,x6
80001864:	03c80833          	mul	x16,x16,x28
80001868:	01071713          	slli	x14,x14,0x10
8000186c:	00e7e7b3          	or	x15,x15,x14
80001870:	000e0713          	mv	x14,x28
80001874:	0107fe63          	bgeu	x15,x16,80001890 <__udivdi3+0x3a0>
80001878:	00f687b3          	add	x15,x13,x15
8000187c:	fffe0713          	addi	x14,x28,-1
80001880:	00d7e863          	bltu	x15,x13,80001890 <__udivdi3+0x3a0>
80001884:	0107f663          	bgeu	x15,x16,80001890 <__udivdi3+0x3a0>
80001888:	ffee0713          	addi	x14,x28,-2
8000188c:	00d787b3          	add	x15,x15,x13
80001890:	01051513          	slli	x10,x10,0x10
80001894:	00010e37          	lui	x28,0x10
80001898:	00e56533          	or	x10,x10,x14
8000189c:	fffe0693          	addi	x13,x28,-1 # ffff <_start-0x7fff0001>
800018a0:	00d57733          	and	x14,x10,x13
800018a4:	410787b3          	sub	x15,x15,x16
800018a8:	00d676b3          	and	x13,x12,x13
800018ac:	01055813          	srli	x16,x10,0x10
800018b0:	01065613          	srli	x12,x12,0x10
800018b4:	02d70333          	mul	x6,x14,x13
800018b8:	02d806b3          	mul	x13,x16,x13
800018bc:	02c70733          	mul	x14,x14,x12
800018c0:	02c80833          	mul	x16,x16,x12
800018c4:	00d70633          	add	x12,x14,x13
800018c8:	01035713          	srli	x14,x6,0x10
800018cc:	00c70733          	add	x14,x14,x12
800018d0:	00d77463          	bgeu	x14,x13,800018d8 <__udivdi3+0x3e8>
800018d4:	01c80833          	add	x16,x16,x28
800018d8:	01075693          	srli	x13,x14,0x10
800018dc:	010686b3          	add	x13,x13,x16
800018e0:	02d7e663          	bltu	x15,x13,8000190c <__udivdi3+0x41c>
800018e4:	ced79ee3          	bne	x15,x13,800015e0 <__udivdi3+0xf0>
800018e8:	000107b7          	lui	x15,0x10
800018ec:	fff78793          	addi	x15,x15,-1 # ffff <_start-0x7fff0001>
800018f0:	00f77733          	and	x14,x14,x15
800018f4:	01071713          	slli	x14,x14,0x10
800018f8:	00f37333          	and	x6,x6,x15
800018fc:	00b898b3          	sll	x17,x17,x11
80001900:	00670733          	add	x14,x14,x6
80001904:	00000593          	li	x11,0
80001908:	cce8fee3          	bgeu	x17,x14,800015e4 <__udivdi3+0xf4>
8000190c:	fff50513          	addi	x10,x10,-1 # ffffff <_start-0x7f000001>
80001910:	cd1ff06f          	j	800015e0 <__udivdi3+0xf0>
80001914:	00000593          	li	x11,0
80001918:	00000513          	li	x10,0
8000191c:	00008067          	ret

80001920 <__umoddi3>:
80001920:	00060813          	mv	x16,x12
80001924:	00050793          	mv	x15,x10
80001928:	00058713          	mv	x14,x11
8000192c:	20069663          	bnez	x13,80001b38 <__umoddi3+0x218>
80001930:	800048b7          	lui	x17,0x80004
80001934:	1e488893          	addi	x17,x17,484 # 800041e4 <__clz_tab>
80001938:	0cc5fc63          	bgeu	x11,x12,80001a10 <__umoddi3+0xf0>
8000193c:	000106b7          	lui	x13,0x10
80001940:	0ad67e63          	bgeu	x12,x13,800019fc <__umoddi3+0xdc>
80001944:	10063693          	sltiu	x13,x12,256
80001948:	0016b693          	seqz	x13,x13
8000194c:	00369693          	slli	x13,x13,0x3
80001950:	00d65333          	srl	x6,x12,x13
80001954:	006888b3          	add	x17,x17,x6
80001958:	0008c883          	lbu	x17,0(x17)
8000195c:	02000313          	li	x6,32
80001960:	00d886b3          	add	x13,x17,x13
80001964:	40d308b3          	sub	x17,x6,x13
80001968:	00d30c63          	beq	x6,x13,80001980 <__umoddi3+0x60>
8000196c:	01159733          	sll	x14,x11,x17
80001970:	00d556b3          	srl	x13,x10,x13
80001974:	01161833          	sll	x16,x12,x17
80001978:	00e6e733          	or	x14,x13,x14
8000197c:	011517b3          	sll	x15,x10,x17
80001980:	01085613          	srli	x12,x16,0x10
80001984:	02c756b3          	divu	x13,x14,x12
80001988:	01081513          	slli	x10,x16,0x10
8000198c:	01055513          	srli	x10,x10,0x10
80001990:	02c77733          	remu	x14,x14,x12
80001994:	02a686b3          	mul	x13,x13,x10
80001998:	01071593          	slli	x11,x14,0x10
8000199c:	0107d713          	srli	x14,x15,0x10
800019a0:	00b76733          	or	x14,x14,x11
800019a4:	00d77a63          	bgeu	x14,x13,800019b8 <__umoddi3+0x98>
800019a8:	00e80733          	add	x14,x16,x14
800019ac:	01076663          	bltu	x14,x16,800019b8 <__umoddi3+0x98>
800019b0:	00d77463          	bgeu	x14,x13,800019b8 <__umoddi3+0x98>
800019b4:	01070733          	add	x14,x14,x16
800019b8:	40d70733          	sub	x14,x14,x13
800019bc:	02c756b3          	divu	x13,x14,x12
800019c0:	02c77733          	remu	x14,x14,x12
800019c4:	02a686b3          	mul	x13,x13,x10
800019c8:	01079793          	slli	x15,x15,0x10
800019cc:	01071713          	slli	x14,x14,0x10
800019d0:	0107d793          	srli	x15,x15,0x10
800019d4:	00e7e7b3          	or	x15,x15,x14
800019d8:	00d7fa63          	bgeu	x15,x13,800019ec <__umoddi3+0xcc>
800019dc:	00f807b3          	add	x15,x16,x15
800019e0:	0107e663          	bltu	x15,x16,800019ec <__umoddi3+0xcc>
800019e4:	00d7f463          	bgeu	x15,x13,800019ec <__umoddi3+0xcc>
800019e8:	010787b3          	add	x15,x15,x16
800019ec:	40d787b3          	sub	x15,x15,x13
800019f0:	0117d533          	srl	x10,x15,x17
800019f4:	00000593          	li	x11,0
800019f8:	00008067          	ret
800019fc:	01000337          	lui	x6,0x1000
80001a00:	01800693          	li	x13,24
80001a04:	f46676e3          	bgeu	x12,x6,80001950 <__umoddi3+0x30>
80001a08:	01000693          	li	x13,16
80001a0c:	f45ff06f          	j	80001950 <__umoddi3+0x30>
80001a10:	00000693          	li	x13,0
80001a14:	00060c63          	beqz	x12,80001a2c <__umoddi3+0x10c>
80001a18:	00010737          	lui	x14,0x10
80001a1c:	06e67e63          	bgeu	x12,x14,80001a98 <__umoddi3+0x178>
80001a20:	10063693          	sltiu	x13,x12,256
80001a24:	0016b693          	seqz	x13,x13
80001a28:	00369693          	slli	x13,x13,0x3
80001a2c:	00d65733          	srl	x14,x12,x13
80001a30:	00e888b3          	add	x17,x17,x14
80001a34:	0008c703          	lbu	x14,0(x17)
80001a38:	00d70733          	add	x14,x14,x13
80001a3c:	02000693          	li	x13,32
80001a40:	40e688b3          	sub	x17,x13,x14
80001a44:	06e69463          	bne	x13,x14,80001aac <__umoddi3+0x18c>
80001a48:	40c58733          	sub	x14,x11,x12
80001a4c:	01085593          	srli	x11,x16,0x10
80001a50:	02b75633          	divu	x12,x14,x11
80001a54:	01081513          	slli	x10,x16,0x10
80001a58:	01055513          	srli	x10,x10,0x10
80001a5c:	0107d693          	srli	x13,x15,0x10
80001a60:	02b77733          	remu	x14,x14,x11
80001a64:	02a60633          	mul	x12,x12,x10
80001a68:	01071713          	slli	x14,x14,0x10
80001a6c:	00e6e733          	or	x14,x13,x14
80001a70:	00c77a63          	bgeu	x14,x12,80001a84 <__umoddi3+0x164>
80001a74:	00e80733          	add	x14,x16,x14
80001a78:	01076663          	bltu	x14,x16,80001a84 <__umoddi3+0x164>
80001a7c:	00c77463          	bgeu	x14,x12,80001a84 <__umoddi3+0x164>
80001a80:	01070733          	add	x14,x14,x16
80001a84:	40c70733          	sub	x14,x14,x12
80001a88:	02b756b3          	divu	x13,x14,x11
80001a8c:	02b77733          	remu	x14,x14,x11
80001a90:	02a686b3          	mul	x13,x13,x10
80001a94:	f35ff06f          	j	800019c8 <__umoddi3+0xa8>
80001a98:	01000737          	lui	x14,0x1000
80001a9c:	01800693          	li	x13,24
80001aa0:	f8e676e3          	bgeu	x12,x14,80001a2c <__umoddi3+0x10c>
80001aa4:	01000693          	li	x13,16
80001aa8:	f85ff06f          	j	80001a2c <__umoddi3+0x10c>
80001aac:	01161833          	sll	x16,x12,x17
80001ab0:	00e5d6b3          	srl	x13,x11,x14
80001ab4:	011517b3          	sll	x15,x10,x17
80001ab8:	011595b3          	sll	x11,x11,x17
80001abc:	00e55733          	srl	x14,x10,x14
80001ac0:	01085513          	srli	x10,x16,0x10
80001ac4:	00b76733          	or	x14,x14,x11
80001ac8:	02a6d5b3          	divu	x11,x13,x10
80001acc:	01081313          	slli	x6,x16,0x10
80001ad0:	01035313          	srli	x6,x6,0x10
80001ad4:	02a6f6b3          	remu	x13,x13,x10
80001ad8:	026585b3          	mul	x11,x11,x6
80001adc:	01069613          	slli	x12,x13,0x10
80001ae0:	01075693          	srli	x13,x14,0x10
80001ae4:	00c6e6b3          	or	x13,x13,x12
80001ae8:	00b6fa63          	bgeu	x13,x11,80001afc <__umoddi3+0x1dc>
80001aec:	00d806b3          	add	x13,x16,x13
80001af0:	0106e663          	bltu	x13,x16,80001afc <__umoddi3+0x1dc>
80001af4:	00b6f463          	bgeu	x13,x11,80001afc <__umoddi3+0x1dc>
80001af8:	010686b3          	add	x13,x13,x16
80001afc:	40b686b3          	sub	x13,x13,x11
80001b00:	02a6d633          	divu	x12,x13,x10
80001b04:	01071713          	slli	x14,x14,0x10
80001b08:	01075713          	srli	x14,x14,0x10
80001b0c:	02a6f6b3          	remu	x13,x13,x10
80001b10:	02660633          	mul	x12,x12,x6
80001b14:	01069693          	slli	x13,x13,0x10
80001b18:	00d76733          	or	x14,x14,x13
80001b1c:	00c77a63          	bgeu	x14,x12,80001b30 <__umoddi3+0x210>
80001b20:	00e80733          	add	x14,x16,x14
80001b24:	01076663          	bltu	x14,x16,80001b30 <__umoddi3+0x210>
80001b28:	00c77463          	bgeu	x14,x12,80001b30 <__umoddi3+0x210>
80001b2c:	01070733          	add	x14,x14,x16
80001b30:	40c70733          	sub	x14,x14,x12
80001b34:	f19ff06f          	j	80001a4c <__umoddi3+0x12c>
80001b38:	1cd5e463          	bltu	x11,x13,80001d00 <__umoddi3+0x3e0>
80001b3c:	00010837          	lui	x16,0x10
80001b40:	0506fe63          	bgeu	x13,x16,80001b9c <__umoddi3+0x27c>
80001b44:	1006b813          	sltiu	x16,x13,256
80001b48:	00183813          	seqz	x16,x16
80001b4c:	00381813          	slli	x16,x16,0x3
80001b50:	800048b7          	lui	x17,0x80004
80001b54:	0106d333          	srl	x6,x13,x16
80001b58:	1e488893          	addi	x17,x17,484 # 800041e4 <__clz_tab>
80001b5c:	006888b3          	add	x17,x17,x6
80001b60:	0008c883          	lbu	x17,0(x17)
80001b64:	02000313          	li	x6,32
80001b68:	010888b3          	add	x17,x17,x16
80001b6c:	41130833          	sub	x16,x6,x17
80001b70:	05131063          	bne	x6,x17,80001bb0 <__umoddi3+0x290>
80001b74:	00b6e463          	bltu	x13,x11,80001b7c <__umoddi3+0x25c>
80001b78:	00c56c63          	bltu	x10,x12,80001b90 <__umoddi3+0x270>
80001b7c:	40c50633          	sub	x12,x10,x12
80001b80:	40d586b3          	sub	x13,x11,x13
80001b84:	00c53733          	sltu	x14,x10,x12
80001b88:	00060793          	mv	x15,x12
80001b8c:	40e68733          	sub	x14,x13,x14
80001b90:	00078513          	mv	x10,x15
80001b94:	00070593          	mv	x11,x14
80001b98:	00008067          	ret
80001b9c:	010008b7          	lui	x17,0x1000
80001ba0:	01800813          	li	x16,24
80001ba4:	fb16f6e3          	bgeu	x13,x17,80001b50 <__umoddi3+0x230>
80001ba8:	01000813          	li	x16,16
80001bac:	fa5ff06f          	j	80001b50 <__umoddi3+0x230>
80001bb0:	011657b3          	srl	x15,x12,x17
80001bb4:	010696b3          	sll	x13,x13,x16
80001bb8:	00d7e6b3          	or	x13,x15,x13
80001bbc:	0115d733          	srl	x14,x11,x17
80001bc0:	0106de13          	srli	x28,x13,0x10
80001bc4:	03c75f33          	divu	x30,x14,x28
80001bc8:	01069313          	slli	x6,x13,0x10
80001bcc:	01035313          	srli	x6,x6,0x10
80001bd0:	010597b3          	sll	x15,x11,x16
80001bd4:	011555b3          	srl	x11,x10,x17
80001bd8:	00f5e5b3          	or	x11,x11,x15
80001bdc:	0105d793          	srli	x15,x11,0x10
80001be0:	01061633          	sll	x12,x12,x16
80001be4:	01051533          	sll	x10,x10,x16
80001be8:	03c77733          	remu	x14,x14,x28
80001bec:	03e30eb3          	mul	x29,x6,x30
80001bf0:	01071713          	slli	x14,x14,0x10
80001bf4:	00e7e7b3          	or	x15,x15,x14
80001bf8:	000f0713          	mv	x14,x30
80001bfc:	01d7fe63          	bgeu	x15,x29,80001c18 <__umoddi3+0x2f8>
80001c00:	00f687b3          	add	x15,x13,x15
80001c04:	ffff0713          	addi	x14,x30,-1
80001c08:	00d7e863          	bltu	x15,x13,80001c18 <__umoddi3+0x2f8>
80001c0c:	01d7f663          	bgeu	x15,x29,80001c18 <__umoddi3+0x2f8>
80001c10:	ffef0713          	addi	x14,x30,-2
80001c14:	00d787b3          	add	x15,x15,x13
80001c18:	41d787b3          	sub	x15,x15,x29
80001c1c:	03c7deb3          	divu	x29,x15,x28
80001c20:	01059593          	slli	x11,x11,0x10
80001c24:	0105d593          	srli	x11,x11,0x10
80001c28:	03c7f7b3          	remu	x15,x15,x28
80001c2c:	000e8e13          	mv	x28,x29
80001c30:	03d30333          	mul	x6,x6,x29
80001c34:	01079793          	slli	x15,x15,0x10
80001c38:	00f5e5b3          	or	x11,x11,x15
80001c3c:	0065fe63          	bgeu	x11,x6,80001c58 <__umoddi3+0x338>
80001c40:	00b685b3          	add	x11,x13,x11
80001c44:	fffe8e13          	addi	x28,x29,-1
80001c48:	00d5e863          	bltu	x11,x13,80001c58 <__umoddi3+0x338>
80001c4c:	0065f663          	bgeu	x11,x6,80001c58 <__umoddi3+0x338>
80001c50:	ffee8e13          	addi	x28,x29,-2
80001c54:	00d585b3          	add	x11,x11,x13
80001c58:	01071793          	slli	x15,x14,0x10
80001c5c:	00010f37          	lui	x30,0x10
80001c60:	01c7e7b3          	or	x15,x15,x28
80001c64:	406585b3          	sub	x11,x11,x6
80001c68:	ffff0313          	addi	x6,x30,-1 # ffff <_start-0x7fff0001>
80001c6c:	0067f733          	and	x14,x15,x6
80001c70:	01065e13          	srli	x28,x12,0x10
80001c74:	0107d793          	srli	x15,x15,0x10
80001c78:	00667333          	and	x6,x12,x6
80001c7c:	02670eb3          	mul	x29,x14,x6
80001c80:	02678333          	mul	x6,x15,x6
80001c84:	03c70733          	mul	x14,x14,x28
80001c88:	03c787b3          	mul	x15,x15,x28
80001c8c:	00670e33          	add	x28,x14,x6
80001c90:	010ed713          	srli	x14,x29,0x10
80001c94:	01c70733          	add	x14,x14,x28
80001c98:	00677463          	bgeu	x14,x6,80001ca0 <__umoddi3+0x380>
80001c9c:	01e787b3          	add	x15,x15,x30
80001ca0:	01075313          	srli	x6,x14,0x10
80001ca4:	00f307b3          	add	x15,x6,x15
80001ca8:	00010337          	lui	x6,0x10
80001cac:	fff30313          	addi	x6,x6,-1 # ffff <_start-0x7fff0001>
80001cb0:	00677733          	and	x14,x14,x6
80001cb4:	01071713          	slli	x14,x14,0x10
80001cb8:	006efeb3          	and	x29,x29,x6
80001cbc:	01d70733          	add	x14,x14,x29
80001cc0:	00f5e663          	bltu	x11,x15,80001ccc <__umoddi3+0x3ac>
80001cc4:	00f59e63          	bne	x11,x15,80001ce0 <__umoddi3+0x3c0>
80001cc8:	00e57c63          	bgeu	x10,x14,80001ce0 <__umoddi3+0x3c0>
80001ccc:	40c70633          	sub	x12,x14,x12
80001cd0:	00c73333          	sltu	x6,x14,x12
80001cd4:	00d306b3          	add	x13,x6,x13
80001cd8:	00060713          	mv	x14,x12
80001cdc:	40d787b3          	sub	x15,x15,x13
80001ce0:	40e50733          	sub	x14,x10,x14
80001ce4:	00e53533          	sltu	x10,x10,x14
80001ce8:	40f585b3          	sub	x11,x11,x15
80001cec:	40a585b3          	sub	x11,x11,x10
80001cf0:	011598b3          	sll	x17,x11,x17
80001cf4:	01075733          	srl	x14,x14,x16
80001cf8:	00e8e533          	or	x10,x17,x14
80001cfc:	0105d5b3          	srl	x11,x11,x16
80001d00:	00008067          	ret

80001d04 <time>:
80001d04:	fe010113          	addi	x2,x2,-32
80001d08:	800057b7          	lui	x15,0x80005
80001d0c:	00812c23          	sw	x8,24(x2)
80001d10:	00050413          	mv	x8,x10
80001d14:	8907a503          	lw	x10,-1904(x15) # 80004890 <_impure_ptr>
80001d18:	fff00713          	li	x14,-1
80001d1c:	fff00793          	li	x15,-1
80001d20:	00000613          	li	x12,0
80001d24:	00010593          	mv	x11,x2
80001d28:	00112e23          	sw	x1,28(x2)
80001d2c:	00e12023          	sw	x14,0(x2)
80001d30:	00f12223          	sw	x15,4(x2)
80001d34:	040000ef          	jal	80001d74 <_gettimeofday_r>
80001d38:	02054863          	bltz	x10,80001d68 <time+0x64>
80001d3c:	00012703          	lw	x14,0(x2)
80001d40:	00412783          	lw	x15,4(x2)
80001d44:	00040663          	beqz	x8,80001d50 <time+0x4c>
80001d48:	00e42023          	sw	x14,0(x8)
80001d4c:	00f42223          	sw	x15,4(x8)
80001d50:	01c12083          	lw	x1,28(x2)
80001d54:	01812403          	lw	x8,24(x2)
80001d58:	00070513          	mv	x10,x14
80001d5c:	00078593          	mv	x11,x15
80001d60:	02010113          	addi	x2,x2,32
80001d64:	00008067          	ret
80001d68:	fff00713          	li	x14,-1
80001d6c:	fff00793          	li	x15,-1
80001d70:	fd5ff06f          	j	80001d44 <time+0x40>

80001d74 <_gettimeofday_r>:
80001d74:	ff010113          	addi	x2,x2,-16
80001d78:	00058713          	mv	x14,x11
80001d7c:	00812423          	sw	x8,8(x2)
80001d80:	00912223          	sw	x9,4(x2)
80001d84:	00050413          	mv	x8,x10
80001d88:	800074b7          	lui	x9,0x80007
80001d8c:	00060593          	mv	x11,x12
80001d90:	00070513          	mv	x10,x14
80001d94:	00112623          	sw	x1,12(x2)
80001d98:	2004a223          	sw	x0,516(x9) # 80007204 <errno>
80001d9c:	3cd010ef          	jal	80003968 <_gettimeofday>
80001da0:	fff00793          	li	x15,-1
80001da4:	00f50c63          	beq	x10,x15,80001dbc <_gettimeofday_r+0x48>
80001da8:	00c12083          	lw	x1,12(x2)
80001dac:	00812403          	lw	x8,8(x2)
80001db0:	00412483          	lw	x9,4(x2)
80001db4:	01010113          	addi	x2,x2,16
80001db8:	00008067          	ret
80001dbc:	2044a783          	lw	x15,516(x9)
80001dc0:	fe0784e3          	beqz	x15,80001da8 <_gettimeofday_r+0x34>
80001dc4:	00c12083          	lw	x1,12(x2)
80001dc8:	00f42023          	sw	x15,0(x8)
80001dcc:	00812403          	lw	x8,8(x2)
80001dd0:	00412483          	lw	x9,4(x2)
80001dd4:	01010113          	addi	x2,x2,16
80001dd8:	00008067          	ret

80001ddc <strcpy>:
80001ddc:	00b567b3          	or	x15,x10,x11
80001de0:	0037f793          	andi	x15,x15,3
80001de4:	08079263          	bnez	x15,80001e68 <strcpy+0x8c>
80001de8:	0005a703          	lw	x14,0(x11)
80001dec:	7f7f86b7          	lui	x13,0x7f7f8
80001df0:	f7f68693          	addi	x13,x13,-129 # 7f7f7f7f <_start-0x808081>
80001df4:	00d777b3          	and	x15,x14,x13
80001df8:	00d787b3          	add	x15,x15,x13
80001dfc:	00e7e7b3          	or	x15,x15,x14
80001e00:	00d7e7b3          	or	x15,x15,x13
80001e04:	fff00613          	li	x12,-1
80001e08:	06c79e63          	bne	x15,x12,80001e84 <strcpy+0xa8>
80001e0c:	00050613          	mv	x12,x10
80001e10:	fff00813          	li	x16,-1
80001e14:	00e62023          	sw	x14,0(x12)
80001e18:	0045a703          	lw	x14,4(x11)
80001e1c:	00458593          	addi	x11,x11,4
80001e20:	00460613          	addi	x12,x12,4
80001e24:	00d777b3          	and	x15,x14,x13
80001e28:	00d787b3          	add	x15,x15,x13
80001e2c:	00e7e7b3          	or	x15,x15,x14
80001e30:	00d7e7b3          	or	x15,x15,x13
80001e34:	ff0780e3          	beq	x15,x16,80001e14 <strcpy+0x38>
80001e38:	0005c783          	lbu	x15,0(x11)
80001e3c:	0015c703          	lbu	x14,1(x11)
80001e40:	0025c683          	lbu	x13,2(x11)
80001e44:	00f60023          	sb	x15,0(x12)
80001e48:	00078a63          	beqz	x15,80001e5c <strcpy+0x80>
80001e4c:	00e600a3          	sb	x14,1(x12)
80001e50:	00070663          	beqz	x14,80001e5c <strcpy+0x80>
80001e54:	00d60123          	sb	x13,2(x12)
80001e58:	00069463          	bnez	x13,80001e60 <strcpy+0x84>
80001e5c:	00008067          	ret
80001e60:	000601a3          	sb	x0,3(x12)
80001e64:	00008067          	ret
80001e68:	00050793          	mv	x15,x10
80001e6c:	0005c703          	lbu	x14,0(x11)
80001e70:	00178793          	addi	x15,x15,1
80001e74:	00158593          	addi	x11,x11,1
80001e78:	fee78fa3          	sb	x14,-1(x15)
80001e7c:	fe0718e3          	bnez	x14,80001e6c <strcpy+0x90>
80001e80:	00008067          	ret
80001e84:	00050613          	mv	x12,x10
80001e88:	fb1ff06f          	j	80001e38 <strcpy+0x5c>

80001e8c <strcmp>:
80001e8c:	00b56733          	or	x14,x10,x11
80001e90:	fff00393          	li	x7,-1
80001e94:	00377713          	andi	x14,x14,3
80001e98:	10071063          	bnez	x14,80001f98 <strcmp+0x10c>
80001e9c:	7f7f87b7          	lui	x15,0x7f7f8
80001ea0:	f7f78793          	addi	x15,x15,-129 # 7f7f7f7f <_start-0x808081>
80001ea4:	00052603          	lw	x12,0(x10)
80001ea8:	0005a683          	lw	x13,0(x11)
80001eac:	00f672b3          	and	x5,x12,x15
80001eb0:	00f66333          	or	x6,x12,x15
80001eb4:	00f282b3          	add	x5,x5,x15
80001eb8:	0062e2b3          	or	x5,x5,x6
80001ebc:	10729263          	bne	x5,x7,80001fc0 <strcmp+0x134>
80001ec0:	08d61663          	bne	x12,x13,80001f4c <strcmp+0xc0>
80001ec4:	00452603          	lw	x12,4(x10)
80001ec8:	0045a683          	lw	x13,4(x11)
80001ecc:	00f672b3          	and	x5,x12,x15
80001ed0:	00f66333          	or	x6,x12,x15
80001ed4:	00f282b3          	add	x5,x5,x15
80001ed8:	0062e2b3          	or	x5,x5,x6
80001edc:	0c729e63          	bne	x5,x7,80001fb8 <strcmp+0x12c>
80001ee0:	06d61663          	bne	x12,x13,80001f4c <strcmp+0xc0>
80001ee4:	00852603          	lw	x12,8(x10)
80001ee8:	0085a683          	lw	x13,8(x11)
80001eec:	00f672b3          	and	x5,x12,x15
80001ef0:	00f66333          	or	x6,x12,x15
80001ef4:	00f282b3          	add	x5,x5,x15
80001ef8:	0062e2b3          	or	x5,x5,x6
80001efc:	0c729863          	bne	x5,x7,80001fcc <strcmp+0x140>
80001f00:	04d61663          	bne	x12,x13,80001f4c <strcmp+0xc0>
80001f04:	00c52603          	lw	x12,12(x10)
80001f08:	00c5a683          	lw	x13,12(x11)
80001f0c:	00f672b3          	and	x5,x12,x15
80001f10:	00f66333          	or	x6,x12,x15
80001f14:	00f282b3          	add	x5,x5,x15
80001f18:	0062e2b3          	or	x5,x5,x6
80001f1c:	0c729263          	bne	x5,x7,80001fe0 <strcmp+0x154>
80001f20:	02d61663          	bne	x12,x13,80001f4c <strcmp+0xc0>
80001f24:	01052603          	lw	x12,16(x10)
80001f28:	0105a683          	lw	x13,16(x11)
80001f2c:	00f672b3          	and	x5,x12,x15
80001f30:	00f66333          	or	x6,x12,x15
80001f34:	00f282b3          	add	x5,x5,x15
80001f38:	0062e2b3          	or	x5,x5,x6
80001f3c:	0a729c63          	bne	x5,x7,80001ff4 <strcmp+0x168>
80001f40:	01450513          	addi	x10,x10,20
80001f44:	01458593          	addi	x11,x11,20
80001f48:	f4d60ee3          	beq	x12,x13,80001ea4 <strcmp+0x18>
80001f4c:	01061713          	slli	x14,x12,0x10
80001f50:	01069793          	slli	x15,x13,0x10
80001f54:	00f71e63          	bne	x14,x15,80001f70 <strcmp+0xe4>
80001f58:	01065713          	srli	x14,x12,0x10
80001f5c:	0106d793          	srli	x15,x13,0x10
80001f60:	40f70533          	sub	x10,x14,x15
80001f64:	0ff57593          	zext.b	x11,x10
80001f68:	02059063          	bnez	x11,80001f88 <strcmp+0xfc>
80001f6c:	00008067          	ret
80001f70:	01075713          	srli	x14,x14,0x10
80001f74:	0107d793          	srli	x15,x15,0x10
80001f78:	40f70533          	sub	x10,x14,x15
80001f7c:	0ff57593          	zext.b	x11,x10
80001f80:	00059463          	bnez	x11,80001f88 <strcmp+0xfc>
80001f84:	00008067          	ret
80001f88:	0ff77713          	zext.b	x14,x14
80001f8c:	0ff7f793          	zext.b	x15,x15
80001f90:	40f70533          	sub	x10,x14,x15
80001f94:	00008067          	ret
80001f98:	00054603          	lbu	x12,0(x10)
80001f9c:	0005c683          	lbu	x13,0(x11)
80001fa0:	00150513          	addi	x10,x10,1
80001fa4:	00158593          	addi	x11,x11,1
80001fa8:	00d61463          	bne	x12,x13,80001fb0 <strcmp+0x124>
80001fac:	fe0616e3          	bnez	x12,80001f98 <strcmp+0x10c>
80001fb0:	40d60533          	sub	x10,x12,x13
80001fb4:	00008067          	ret
80001fb8:	00450513          	addi	x10,x10,4
80001fbc:	00458593          	addi	x11,x11,4
80001fc0:	fcd61ce3          	bne	x12,x13,80001f98 <strcmp+0x10c>
80001fc4:	00000513          	li	x10,0
80001fc8:	00008067          	ret
80001fcc:	00850513          	addi	x10,x10,8
80001fd0:	00858593          	addi	x11,x11,8
80001fd4:	fcd612e3          	bne	x12,x13,80001f98 <strcmp+0x10c>
80001fd8:	00000513          	li	x10,0
80001fdc:	00008067          	ret
80001fe0:	00c50513          	addi	x10,x10,12
80001fe4:	00c58593          	addi	x11,x11,12
80001fe8:	fad618e3          	bne	x12,x13,80001f98 <strcmp+0x10c>
80001fec:	00000513          	li	x10,0
80001ff0:	00008067          	ret
80001ff4:	01050513          	addi	x10,x10,16
80001ff8:	01058593          	addi	x11,x11,16
80001ffc:	f8d61ee3          	bne	x12,x13,80001f98 <strcmp+0x10c>
80002000:	00000513          	li	x10,0
80002004:	00008067          	ret

80002008 <__fp_lock>:
80002008:	00000513          	li	x10,0
8000200c:	00008067          	ret

80002010 <stdio_exit_handler>:
80002010:	80004637          	lui	x12,0x80004
80002014:	800035b7          	lui	x11,0x80003
80002018:	80004537          	lui	x10,0x80004
8000201c:	47860613          	addi	x12,x12,1144 # 80004478 <__sglue>
80002020:	47858593          	addi	x11,x11,1144 # 80003478 <_fclose_r>
80002024:	35850513          	addi	x10,x10,856 # 80004358 <_impure_data>
80002028:	3780006f          	j	800023a0 <_fwalk_sglue>

8000202c <cleanup_stdio>:
8000202c:	00452583          	lw	x11,4(x10)
80002030:	ff010113          	addi	x2,x2,-16
80002034:	800077b7          	lui	x15,0x80007
80002038:	00812423          	sw	x8,8(x2)
8000203c:	00112623          	sw	x1,12(x2)
80002040:	07478793          	addi	x15,x15,116 # 80007074 <__sf>
80002044:	00050413          	mv	x8,x10
80002048:	00f58463          	beq	x11,x15,80002050 <cleanup_stdio+0x24>
8000204c:	42c010ef          	jal	80003478 <_fclose_r>
80002050:	00842583          	lw	x11,8(x8)
80002054:	800077b7          	lui	x15,0x80007
80002058:	0dc78793          	addi	x15,x15,220 # 800070dc <__sf+0x68>
8000205c:	00f58663          	beq	x11,x15,80002068 <cleanup_stdio+0x3c>
80002060:	00040513          	mv	x10,x8
80002064:	414010ef          	jal	80003478 <_fclose_r>
80002068:	00c42583          	lw	x11,12(x8)
8000206c:	800077b7          	lui	x15,0x80007
80002070:	14478793          	addi	x15,x15,324 # 80007144 <__sf+0xd0>
80002074:	00f58c63          	beq	x11,x15,8000208c <cleanup_stdio+0x60>
80002078:	00040513          	mv	x10,x8
8000207c:	00812403          	lw	x8,8(x2)
80002080:	00c12083          	lw	x1,12(x2)
80002084:	01010113          	addi	x2,x2,16
80002088:	3f00106f          	j	80003478 <_fclose_r>
8000208c:	00c12083          	lw	x1,12(x2)
80002090:	00812403          	lw	x8,8(x2)
80002094:	01010113          	addi	x2,x2,16
80002098:	00008067          	ret

8000209c <__fp_unlock>:
8000209c:	00000513          	li	x10,0
800020a0:	00008067          	ret

800020a4 <global_stdio_init.part.0>:
800020a4:	fe010113          	addi	x2,x2,-32
800020a8:	800027b7          	lui	x15,0x80002
800020ac:	00812c23          	sw	x8,24(x2)
800020b0:	80007737          	lui	x14,0x80007
800020b4:	01078793          	addi	x15,x15,16 # 80002010 <stdio_exit_handler>
800020b8:	80007437          	lui	x8,0x80007
800020bc:	80007537          	lui	x10,0x80007
800020c0:	07440413          	addi	x8,x8,116 # 80007074 <__sf>
800020c4:	00112e23          	sw	x1,28(x2)
800020c8:	00912a23          	sw	x9,20(x2)
800020cc:	01212823          	sw	x18,16(x2)
800020d0:	01312623          	sw	x19,12(x2)
800020d4:	01412423          	sw	x20,8(x2)
800020d8:	20f72023          	sw	x15,512(x14) # 80007200 <__stdio_exit_handler>
800020dc:	00800613          	li	x12,8
800020e0:	00400793          	li	x15,4
800020e4:	00000593          	li	x11,0
800020e8:	0d050513          	addi	x10,x10,208 # 800070d0 <__sf+0x5c>
800020ec:	00f42623          	sw	x15,12(x8)
800020f0:	00042023          	sw	x0,0(x8)
800020f4:	00042223          	sw	x0,4(x8)
800020f8:	00042423          	sw	x0,8(x8)
800020fc:	06042223          	sw	x0,100(x8)
80002100:	00042823          	sw	x0,16(x8)
80002104:	00042a23          	sw	x0,20(x8)
80002108:	00042c23          	sw	x0,24(x8)
8000210c:	f7cfe0ef          	jal	80000888 <memset>
80002110:	000107b7          	lui	x15,0x10
80002114:	80002a37          	lui	x20,0x80002
80002118:	800029b7          	lui	x19,0x80002
8000211c:	80002937          	lui	x18,0x80002
80002120:	800024b7          	lui	x9,0x80002
80002124:	80007537          	lui	x10,0x80007
80002128:	454a0a13          	addi	x20,x20,1108 # 80002454 <__sread>
8000212c:	4b898993          	addi	x19,x19,1208 # 800024b8 <__swrite>
80002130:	54090913          	addi	x18,x18,1344 # 80002540 <__sseek>
80002134:	5b848493          	addi	x9,x9,1464 # 800025b8 <__sclose>
80002138:	00978793          	addi	x15,x15,9 # 10009 <_start-0x7ffefff7>
8000213c:	00800613          	li	x12,8
80002140:	00000593          	li	x11,0
80002144:	13850513          	addi	x10,x10,312 # 80007138 <__sf+0xc4>
80002148:	03442023          	sw	x20,32(x8)
8000214c:	03342223          	sw	x19,36(x8)
80002150:	03242423          	sw	x18,40(x8)
80002154:	02942623          	sw	x9,44(x8)
80002158:	06f42a23          	sw	x15,116(x8)
8000215c:	00842e23          	sw	x8,28(x8)
80002160:	06042423          	sw	x0,104(x8)
80002164:	06042623          	sw	x0,108(x8)
80002168:	06042823          	sw	x0,112(x8)
8000216c:	0c042623          	sw	x0,204(x8)
80002170:	06042c23          	sw	x0,120(x8)
80002174:	06042e23          	sw	x0,124(x8)
80002178:	08042023          	sw	x0,128(x8)
8000217c:	f0cfe0ef          	jal	80000888 <memset>
80002180:	000207b7          	lui	x15,0x20
80002184:	80007537          	lui	x10,0x80007
80002188:	80007737          	lui	x14,0x80007
8000218c:	01278793          	addi	x15,x15,18 # 20012 <_start-0x7ffdffee>
80002190:	0dc70713          	addi	x14,x14,220 # 800070dc <__sf+0x68>
80002194:	00800613          	li	x12,8
80002198:	00000593          	li	x11,0
8000219c:	1a050513          	addi	x10,x10,416 # 800071a0 <__sf+0x12c>
800021a0:	09442423          	sw	x20,136(x8)
800021a4:	09342623          	sw	x19,140(x8)
800021a8:	09242823          	sw	x18,144(x8)
800021ac:	08942a23          	sw	x9,148(x8)
800021b0:	0cf42e23          	sw	x15,220(x8)
800021b4:	08e42223          	sw	x14,132(x8)
800021b8:	0c042823          	sw	x0,208(x8)
800021bc:	0c042a23          	sw	x0,212(x8)
800021c0:	0c042c23          	sw	x0,216(x8)
800021c4:	12042a23          	sw	x0,308(x8)
800021c8:	0e042023          	sw	x0,224(x8)
800021cc:	0e042223          	sw	x0,228(x8)
800021d0:	0e042423          	sw	x0,232(x8)
800021d4:	eb4fe0ef          	jal	80000888 <memset>
800021d8:	800077b7          	lui	x15,0x80007
800021dc:	14478793          	addi	x15,x15,324 # 80007144 <__sf+0xd0>
800021e0:	0f442823          	sw	x20,240(x8)
800021e4:	0f342a23          	sw	x19,244(x8)
800021e8:	0f242c23          	sw	x18,248(x8)
800021ec:	0e942e23          	sw	x9,252(x8)
800021f0:	01c12083          	lw	x1,28(x2)
800021f4:	0ef42623          	sw	x15,236(x8)
800021f8:	01812403          	lw	x8,24(x2)
800021fc:	01412483          	lw	x9,20(x2)
80002200:	01012903          	lw	x18,16(x2)
80002204:	00c12983          	lw	x19,12(x2)
80002208:	00812a03          	lw	x20,8(x2)
8000220c:	02010113          	addi	x2,x2,32
80002210:	00008067          	ret

80002214 <__sfp>:
80002214:	800077b7          	lui	x15,0x80007
80002218:	2007a783          	lw	x15,512(x15) # 80007200 <__stdio_exit_handler>
8000221c:	fe010113          	addi	x2,x2,-32
80002220:	01312623          	sw	x19,12(x2)
80002224:	00112e23          	sw	x1,28(x2)
80002228:	00812c23          	sw	x8,24(x2)
8000222c:	00912a23          	sw	x9,20(x2)
80002230:	01212823          	sw	x18,16(x2)
80002234:	00050993          	mv	x19,x10
80002238:	0e078863          	beqz	x15,80002328 <__sfp+0x114>
8000223c:	80004937          	lui	x18,0x80004
80002240:	47890913          	addi	x18,x18,1144 # 80004478 <__sglue>
80002244:	fff00493          	li	x9,-1
80002248:	00492783          	lw	x15,4(x18)
8000224c:	00892403          	lw	x8,8(x18)
80002250:	fff78793          	addi	x15,x15,-1
80002254:	0007d863          	bgez	x15,80002264 <__sfp+0x50>
80002258:	0800006f          	j	800022d8 <__sfp+0xc4>
8000225c:	06840413          	addi	x8,x8,104
80002260:	06978c63          	beq	x15,x9,800022d8 <__sfp+0xc4>
80002264:	00c41703          	lh	x14,12(x8)
80002268:	fff78793          	addi	x15,x15,-1
8000226c:	fe0718e3          	bnez	x14,8000225c <__sfp+0x48>
80002270:	ffff07b7          	lui	x15,0xffff0
80002274:	00178793          	addi	x15,x15,1 # ffff0001 <heap_end.0+0x7ffe8ded>
80002278:	00f42623          	sw	x15,12(x8)
8000227c:	06042223          	sw	x0,100(x8)
80002280:	00042023          	sw	x0,0(x8)
80002284:	00042423          	sw	x0,8(x8)
80002288:	00042223          	sw	x0,4(x8)
8000228c:	00042823          	sw	x0,16(x8)
80002290:	00042a23          	sw	x0,20(x8)
80002294:	00042c23          	sw	x0,24(x8)
80002298:	00800613          	li	x12,8
8000229c:	00000593          	li	x11,0
800022a0:	05c40513          	addi	x10,x8,92
800022a4:	de4fe0ef          	jal	80000888 <memset>
800022a8:	02042823          	sw	x0,48(x8)
800022ac:	02042a23          	sw	x0,52(x8)
800022b0:	04042223          	sw	x0,68(x8)
800022b4:	04042423          	sw	x0,72(x8)
800022b8:	01c12083          	lw	x1,28(x2)
800022bc:	00040513          	mv	x10,x8
800022c0:	01812403          	lw	x8,24(x2)
800022c4:	01412483          	lw	x9,20(x2)
800022c8:	01012903          	lw	x18,16(x2)
800022cc:	00c12983          	lw	x19,12(x2)
800022d0:	02010113          	addi	x2,x2,32
800022d4:	00008067          	ret
800022d8:	00092403          	lw	x8,0(x18)
800022dc:	00040663          	beqz	x8,800022e8 <__sfp+0xd4>
800022e0:	00040913          	mv	x18,x8
800022e4:	f65ff06f          	j	80002248 <__sfp+0x34>
800022e8:	1ac00593          	li	x11,428
800022ec:	00098513          	mv	x10,x19
800022f0:	1ad000ef          	jal	80002c9c <_malloc_r>
800022f4:	00050413          	mv	x8,x10
800022f8:	02050c63          	beqz	x10,80002330 <__sfp+0x11c>
800022fc:	00c50513          	addi	x10,x10,12
80002300:	00400793          	li	x15,4
80002304:	00042023          	sw	x0,0(x8)
80002308:	00f42223          	sw	x15,4(x8)
8000230c:	00a42423          	sw	x10,8(x8)
80002310:	1a000613          	li	x12,416
80002314:	00000593          	li	x11,0
80002318:	d70fe0ef          	jal	80000888 <memset>
8000231c:	00892023          	sw	x8,0(x18)
80002320:	00040913          	mv	x18,x8
80002324:	f25ff06f          	j	80002248 <__sfp+0x34>
80002328:	d7dff0ef          	jal	800020a4 <global_stdio_init.part.0>
8000232c:	f11ff06f          	j	8000223c <__sfp+0x28>
80002330:	00092023          	sw	x0,0(x18)
80002334:	00c00793          	li	x15,12
80002338:	00f9a023          	sw	x15,0(x19)
8000233c:	f7dff06f          	j	800022b8 <__sfp+0xa4>

80002340 <__sinit>:
80002340:	03452783          	lw	x15,52(x10)
80002344:	00078463          	beqz	x15,8000234c <__sinit+0xc>
80002348:	00008067          	ret
8000234c:	800077b7          	lui	x15,0x80007
80002350:	2007a703          	lw	x14,512(x15) # 80007200 <__stdio_exit_handler>
80002354:	800027b7          	lui	x15,0x80002
80002358:	02c78793          	addi	x15,x15,44 # 8000202c <cleanup_stdio>
8000235c:	02f52a23          	sw	x15,52(x10)
80002360:	fe0714e3          	bnez	x14,80002348 <__sinit+0x8>
80002364:	d41ff06f          	j	800020a4 <global_stdio_init.part.0>

80002368 <__sfp_lock_acquire>:
80002368:	00008067          	ret

8000236c <__sfp_lock_release>:
8000236c:	00008067          	ret

80002370 <__fp_lock_all>:
80002370:	80004637          	lui	x12,0x80004
80002374:	800025b7          	lui	x11,0x80002
80002378:	47860613          	addi	x12,x12,1144 # 80004478 <__sglue>
8000237c:	00858593          	addi	x11,x11,8 # 80002008 <__fp_lock>
80002380:	00000513          	li	x10,0
80002384:	01c0006f          	j	800023a0 <_fwalk_sglue>

80002388 <__fp_unlock_all>:
80002388:	80004637          	lui	x12,0x80004
8000238c:	800025b7          	lui	x11,0x80002
80002390:	47860613          	addi	x12,x12,1144 # 80004478 <__sglue>
80002394:	09c58593          	addi	x11,x11,156 # 8000209c <__fp_unlock>
80002398:	00000513          	li	x10,0
8000239c:	0040006f          	j	800023a0 <_fwalk_sglue>

800023a0 <_fwalk_sglue>:
800023a0:	fd010113          	addi	x2,x2,-48
800023a4:	03212023          	sw	x18,32(x2)
800023a8:	01312e23          	sw	x19,28(x2)
800023ac:	01412c23          	sw	x20,24(x2)
800023b0:	01512a23          	sw	x21,20(x2)
800023b4:	01612823          	sw	x22,16(x2)
800023b8:	01712623          	sw	x23,12(x2)
800023bc:	02112623          	sw	x1,44(x2)
800023c0:	02812423          	sw	x8,40(x2)
800023c4:	02912223          	sw	x9,36(x2)
800023c8:	00050b13          	mv	x22,x10
800023cc:	00058b93          	mv	x23,x11
800023d0:	00060a93          	mv	x21,x12
800023d4:	00000a13          	li	x20,0
800023d8:	00100993          	li	x19,1
800023dc:	fff00913          	li	x18,-1
800023e0:	004aa483          	lw	x9,4(x21)
800023e4:	008aa403          	lw	x8,8(x21)
800023e8:	fff48493          	addi	x9,x9,-1
800023ec:	0204c863          	bltz	x9,8000241c <_fwalk_sglue+0x7c>
800023f0:	00c45783          	lhu	x15,12(x8)
800023f4:	00f9fe63          	bgeu	x19,x15,80002410 <_fwalk_sglue+0x70>
800023f8:	00e41783          	lh	x15,14(x8)
800023fc:	00040593          	mv	x11,x8
80002400:	000b0513          	mv	x10,x22
80002404:	01278663          	beq	x15,x18,80002410 <_fwalk_sglue+0x70>
80002408:	000b80e7          	jalr	x23
8000240c:	00aa6a33          	or	x20,x20,x10
80002410:	fff48493          	addi	x9,x9,-1
80002414:	06840413          	addi	x8,x8,104
80002418:	fd249ce3          	bne	x9,x18,800023f0 <_fwalk_sglue+0x50>
8000241c:	000aaa83          	lw	x21,0(x21)
80002420:	fc0a90e3          	bnez	x21,800023e0 <_fwalk_sglue+0x40>
80002424:	02c12083          	lw	x1,44(x2)
80002428:	02812403          	lw	x8,40(x2)
8000242c:	02412483          	lw	x9,36(x2)
80002430:	02012903          	lw	x18,32(x2)
80002434:	01c12983          	lw	x19,28(x2)
80002438:	01412a83          	lw	x21,20(x2)
8000243c:	01012b03          	lw	x22,16(x2)
80002440:	00c12b83          	lw	x23,12(x2)
80002444:	000a0513          	mv	x10,x20
80002448:	01812a03          	lw	x20,24(x2)
8000244c:	03010113          	addi	x2,x2,48
80002450:	00008067          	ret

80002454 <__sread>:
80002454:	ff010113          	addi	x2,x2,-16
80002458:	00812423          	sw	x8,8(x2)
8000245c:	00058413          	mv	x8,x11
80002460:	00e59583          	lh	x11,14(x11)
80002464:	00112623          	sw	x1,12(x2)
80002468:	30c000ef          	jal	80002774 <_read_r>
8000246c:	02054063          	bltz	x10,8000248c <__sread+0x38>
80002470:	05042783          	lw	x15,80(x8)
80002474:	00c12083          	lw	x1,12(x2)
80002478:	00a787b3          	add	x15,x15,x10
8000247c:	04f42823          	sw	x15,80(x8)
80002480:	00812403          	lw	x8,8(x2)
80002484:	01010113          	addi	x2,x2,16
80002488:	00008067          	ret
8000248c:	00c45783          	lhu	x15,12(x8)
80002490:	fffff737          	lui	x14,0xfffff
80002494:	fff70713          	addi	x14,x14,-1 # ffffefff <heap_end.0+0x7fff7deb>
80002498:	00e7f7b3          	and	x15,x15,x14
8000249c:	00c12083          	lw	x1,12(x2)
800024a0:	00f41623          	sh	x15,12(x8)
800024a4:	00812403          	lw	x8,8(x2)
800024a8:	01010113          	addi	x2,x2,16
800024ac:	00008067          	ret

800024b0 <__seofread>:
800024b0:	00000513          	li	x10,0
800024b4:	00008067          	ret

800024b8 <__swrite>:
800024b8:	00c59783          	lh	x15,12(x11)
800024bc:	fe010113          	addi	x2,x2,-32
800024c0:	00812c23          	sw	x8,24(x2)
800024c4:	00912a23          	sw	x9,20(x2)
800024c8:	01212823          	sw	x18,16(x2)
800024cc:	01312623          	sw	x19,12(x2)
800024d0:	00112e23          	sw	x1,28(x2)
800024d4:	1007f713          	andi	x14,x15,256
800024d8:	00058413          	mv	x8,x11
800024dc:	00050493          	mv	x9,x10
800024e0:	00060913          	mv	x18,x12
800024e4:	00068993          	mv	x19,x13
800024e8:	04071063          	bnez	x14,80002528 <__swrite+0x70>
800024ec:	fffff737          	lui	x14,0xfffff
800024f0:	fff70713          	addi	x14,x14,-1 # ffffefff <heap_end.0+0x7fff7deb>
800024f4:	00e7f7b3          	and	x15,x15,x14
800024f8:	00e41583          	lh	x11,14(x8)
800024fc:	00f41623          	sh	x15,12(x8)
80002500:	01812403          	lw	x8,24(x2)
80002504:	01c12083          	lw	x1,28(x2)
80002508:	00098693          	mv	x13,x19
8000250c:	00090613          	mv	x12,x18
80002510:	00c12983          	lw	x19,12(x2)
80002514:	01012903          	lw	x18,16(x2)
80002518:	00048513          	mv	x10,x9
8000251c:	01412483          	lw	x9,20(x2)
80002520:	02010113          	addi	x2,x2,32
80002524:	2bc0006f          	j	800027e0 <_write_r>
80002528:	00e59583          	lh	x11,14(x11)
8000252c:	00200693          	li	x13,2
80002530:	00000613          	li	x12,0
80002534:	1d4000ef          	jal	80002708 <_lseek_r>
80002538:	00c41783          	lh	x15,12(x8)
8000253c:	fb1ff06f          	j	800024ec <__swrite+0x34>

80002540 <__sseek>:
80002540:	ff010113          	addi	x2,x2,-16
80002544:	00812423          	sw	x8,8(x2)
80002548:	00058413          	mv	x8,x11
8000254c:	00e59583          	lh	x11,14(x11)
80002550:	00112623          	sw	x1,12(x2)
80002554:	1b4000ef          	jal	80002708 <_lseek_r>
80002558:	fff00793          	li	x15,-1
8000255c:	02f50863          	beq	x10,x15,8000258c <__sseek+0x4c>
80002560:	00c45783          	lhu	x15,12(x8)
80002564:	00001737          	lui	x14,0x1
80002568:	00c12083          	lw	x1,12(x2)
8000256c:	00e7e7b3          	or	x15,x15,x14
80002570:	01079793          	slli	x15,x15,0x10
80002574:	4107d793          	srai	x15,x15,0x10
80002578:	04a42823          	sw	x10,80(x8)
8000257c:	00f41623          	sh	x15,12(x8)
80002580:	00812403          	lw	x8,8(x2)
80002584:	01010113          	addi	x2,x2,16
80002588:	00008067          	ret
8000258c:	00c45783          	lhu	x15,12(x8)
80002590:	fffff737          	lui	x14,0xfffff
80002594:	fff70713          	addi	x14,x14,-1 # ffffefff <heap_end.0+0x7fff7deb>
80002598:	00e7f7b3          	and	x15,x15,x14
8000259c:	01079793          	slli	x15,x15,0x10
800025a0:	4107d793          	srai	x15,x15,0x10
800025a4:	00c12083          	lw	x1,12(x2)
800025a8:	00f41623          	sh	x15,12(x8)
800025ac:	00812403          	lw	x8,8(x2)
800025b0:	01010113          	addi	x2,x2,16
800025b4:	00008067          	ret

800025b8 <__sclose>:
800025b8:	00e59583          	lh	x11,14(x11)
800025bc:	0040006f          	j	800025c0 <_close_r>

800025c0 <_close_r>:
800025c0:	ff010113          	addi	x2,x2,-16
800025c4:	00812423          	sw	x8,8(x2)
800025c8:	00912223          	sw	x9,4(x2)
800025cc:	00050413          	mv	x8,x10
800025d0:	800074b7          	lui	x9,0x80007
800025d4:	00058513          	mv	x10,x11
800025d8:	00112623          	sw	x1,12(x2)
800025dc:	2004a223          	sw	x0,516(x9) # 80007204 <errno>
800025e0:	344010ef          	jal	80003924 <_close>
800025e4:	fff00793          	li	x15,-1
800025e8:	00f50c63          	beq	x10,x15,80002600 <_close_r+0x40>
800025ec:	00c12083          	lw	x1,12(x2)
800025f0:	00812403          	lw	x8,8(x2)
800025f4:	00412483          	lw	x9,4(x2)
800025f8:	01010113          	addi	x2,x2,16
800025fc:	00008067          	ret
80002600:	2044a783          	lw	x15,516(x9)
80002604:	fe0784e3          	beqz	x15,800025ec <_close_r+0x2c>
80002608:	00c12083          	lw	x1,12(x2)
8000260c:	00f42023          	sw	x15,0(x8)
80002610:	00812403          	lw	x8,8(x2)
80002614:	00412483          	lw	x9,4(x2)
80002618:	01010113          	addi	x2,x2,16
8000261c:	00008067          	ret

80002620 <_reclaim_reent>:
80002620:	800057b7          	lui	x15,0x80005
80002624:	8907a783          	lw	x15,-1904(x15) # 80004890 <_impure_ptr>
80002628:	0ca78e63          	beq	x15,x10,80002704 <_reclaim_reent+0xe4>
8000262c:	04452583          	lw	x11,68(x10)
80002630:	fe010113          	addi	x2,x2,-32
80002634:	00912a23          	sw	x9,20(x2)
80002638:	00112e23          	sw	x1,28(x2)
8000263c:	00812c23          	sw	x8,24(x2)
80002640:	00050493          	mv	x9,x10
80002644:	04058863          	beqz	x11,80002694 <_reclaim_reent+0x74>
80002648:	01212823          	sw	x18,16(x2)
8000264c:	01312623          	sw	x19,12(x2)
80002650:	00000913          	li	x18,0
80002654:	08000993          	li	x19,128
80002658:	012587b3          	add	x15,x11,x18
8000265c:	0007a403          	lw	x8,0(x15)
80002660:	00040e63          	beqz	x8,8000267c <_reclaim_reent+0x5c>
80002664:	00040593          	mv	x11,x8
80002668:	00042403          	lw	x8,0(x8)
8000266c:	00048513          	mv	x10,x9
80002670:	320000ef          	jal	80002990 <_free_r>
80002674:	fe0418e3          	bnez	x8,80002664 <_reclaim_reent+0x44>
80002678:	0444a583          	lw	x11,68(x9)
8000267c:	00490913          	addi	x18,x18,4
80002680:	fd391ce3          	bne	x18,x19,80002658 <_reclaim_reent+0x38>
80002684:	00048513          	mv	x10,x9
80002688:	308000ef          	jal	80002990 <_free_r>
8000268c:	01012903          	lw	x18,16(x2)
80002690:	00c12983          	lw	x19,12(x2)
80002694:	0384a583          	lw	x11,56(x9)
80002698:	00058663          	beqz	x11,800026a4 <_reclaim_reent+0x84>
8000269c:	00048513          	mv	x10,x9
800026a0:	2f0000ef          	jal	80002990 <_free_r>
800026a4:	0404a403          	lw	x8,64(x9)
800026a8:	00040c63          	beqz	x8,800026c0 <_reclaim_reent+0xa0>
800026ac:	00040593          	mv	x11,x8
800026b0:	00042403          	lw	x8,0(x8)
800026b4:	00048513          	mv	x10,x9
800026b8:	2d8000ef          	jal	80002990 <_free_r>
800026bc:	fe0418e3          	bnez	x8,800026ac <_reclaim_reent+0x8c>
800026c0:	04c4a583          	lw	x11,76(x9)
800026c4:	00058663          	beqz	x11,800026d0 <_reclaim_reent+0xb0>
800026c8:	00048513          	mv	x10,x9
800026cc:	2c4000ef          	jal	80002990 <_free_r>
800026d0:	0344a783          	lw	x15,52(x9)
800026d4:	00078e63          	beqz	x15,800026f0 <_reclaim_reent+0xd0>
800026d8:	01812403          	lw	x8,24(x2)
800026dc:	01c12083          	lw	x1,28(x2)
800026e0:	00048513          	mv	x10,x9
800026e4:	01412483          	lw	x9,20(x2)
800026e8:	02010113          	addi	x2,x2,32
800026ec:	00078067          	jr	x15
800026f0:	01c12083          	lw	x1,28(x2)
800026f4:	01812403          	lw	x8,24(x2)
800026f8:	01412483          	lw	x9,20(x2)
800026fc:	02010113          	addi	x2,x2,32
80002700:	00008067          	ret
80002704:	00008067          	ret

80002708 <_lseek_r>:
80002708:	ff010113          	addi	x2,x2,-16
8000270c:	00058713          	mv	x14,x11
80002710:	00812423          	sw	x8,8(x2)
80002714:	00912223          	sw	x9,4(x2)
80002718:	00060593          	mv	x11,x12
8000271c:	00050413          	mv	x8,x10
80002720:	800074b7          	lui	x9,0x80007
80002724:	00068613          	mv	x12,x13
80002728:	00070513          	mv	x10,x14
8000272c:	00112623          	sw	x1,12(x2)
80002730:	2004a223          	sw	x0,516(x9) # 80007204 <errno>
80002734:	2ac010ef          	jal	800039e0 <_lseek>
80002738:	fff00793          	li	x15,-1
8000273c:	00f50c63          	beq	x10,x15,80002754 <_lseek_r+0x4c>
80002740:	00c12083          	lw	x1,12(x2)
80002744:	00812403          	lw	x8,8(x2)
80002748:	00412483          	lw	x9,4(x2)
8000274c:	01010113          	addi	x2,x2,16
80002750:	00008067          	ret
80002754:	2044a783          	lw	x15,516(x9)
80002758:	fe0784e3          	beqz	x15,80002740 <_lseek_r+0x38>
8000275c:	00c12083          	lw	x1,12(x2)
80002760:	00f42023          	sw	x15,0(x8)
80002764:	00812403          	lw	x8,8(x2)
80002768:	00412483          	lw	x9,4(x2)
8000276c:	01010113          	addi	x2,x2,16
80002770:	00008067          	ret

80002774 <_read_r>:
80002774:	ff010113          	addi	x2,x2,-16
80002778:	00058713          	mv	x14,x11
8000277c:	00812423          	sw	x8,8(x2)
80002780:	00912223          	sw	x9,4(x2)
80002784:	00060593          	mv	x11,x12
80002788:	00050413          	mv	x8,x10
8000278c:	800074b7          	lui	x9,0x80007
80002790:	00068613          	mv	x12,x13
80002794:	00070513          	mv	x10,x14
80002798:	00112623          	sw	x1,12(x2)
8000279c:	2004a223          	sw	x0,516(x9) # 80007204 <errno>
800027a0:	284010ef          	jal	80003a24 <_read>
800027a4:	fff00793          	li	x15,-1
800027a8:	00f50c63          	beq	x10,x15,800027c0 <_read_r+0x4c>
800027ac:	00c12083          	lw	x1,12(x2)
800027b0:	00812403          	lw	x8,8(x2)
800027b4:	00412483          	lw	x9,4(x2)
800027b8:	01010113          	addi	x2,x2,16
800027bc:	00008067          	ret
800027c0:	2044a783          	lw	x15,516(x9)
800027c4:	fe0784e3          	beqz	x15,800027ac <_read_r+0x38>
800027c8:	00c12083          	lw	x1,12(x2)
800027cc:	00f42023          	sw	x15,0(x8)
800027d0:	00812403          	lw	x8,8(x2)
800027d4:	00412483          	lw	x9,4(x2)
800027d8:	01010113          	addi	x2,x2,16
800027dc:	00008067          	ret

800027e0 <_write_r>:
800027e0:	ff010113          	addi	x2,x2,-16
800027e4:	00058713          	mv	x14,x11
800027e8:	00812423          	sw	x8,8(x2)
800027ec:	00912223          	sw	x9,4(x2)
800027f0:	00060593          	mv	x11,x12
800027f4:	00050413          	mv	x8,x10
800027f8:	800074b7          	lui	x9,0x80007
800027fc:	00068613          	mv	x12,x13
80002800:	00070513          	mv	x10,x14
80002804:	00112623          	sw	x1,12(x2)
80002808:	2004a223          	sw	x0,516(x9) # 80007204 <errno>
8000280c:	2d8010ef          	jal	80003ae4 <_write>
80002810:	fff00793          	li	x15,-1
80002814:	00f50c63          	beq	x10,x15,8000282c <_write_r+0x4c>
80002818:	00c12083          	lw	x1,12(x2)
8000281c:	00812403          	lw	x8,8(x2)
80002820:	00412483          	lw	x9,4(x2)
80002824:	01010113          	addi	x2,x2,16
80002828:	00008067          	ret
8000282c:	2044a783          	lw	x15,516(x9)
80002830:	fe0784e3          	beqz	x15,80002818 <_write_r+0x38>
80002834:	00c12083          	lw	x1,12(x2)
80002838:	00f42023          	sw	x15,0(x8)
8000283c:	00812403          	lw	x8,8(x2)
80002840:	00412483          	lw	x9,4(x2)
80002844:	01010113          	addi	x2,x2,16
80002848:	00008067          	ret

8000284c <_malloc_trim_r>:
8000284c:	fe010113          	addi	x2,x2,-32
80002850:	01312623          	sw	x19,12(x2)
80002854:	800049b7          	lui	x19,0x80004
80002858:	00812c23          	sw	x8,24(x2)
8000285c:	00912a23          	sw	x9,20(x2)
80002860:	01212823          	sw	x18,16(x2)
80002864:	01412423          	sw	x20,8(x2)
80002868:	00112e23          	sw	x1,28(x2)
8000286c:	00058a13          	mv	x20,x11
80002870:	00050913          	mv	x18,x10
80002874:	48498993          	addi	x19,x19,1156 # 80004484 <__malloc_av_>
80002878:	3f9000ef          	jal	80003470 <__malloc_lock>
8000287c:	0089a703          	lw	x14,8(x19)
80002880:	000017b7          	lui	x15,0x1
80002884:	fef78793          	addi	x15,x15,-17 # fef <_start-0x7ffff011>
80002888:	00472483          	lw	x9,4(x14)
8000288c:	00001737          	lui	x14,0x1
80002890:	ffc4f493          	andi	x9,x9,-4
80002894:	00f48433          	add	x8,x9,x15
80002898:	41440433          	sub	x8,x8,x20
8000289c:	00c45413          	srli	x8,x8,0xc
800028a0:	fff40413          	addi	x8,x8,-1
800028a4:	00c41413          	slli	x8,x8,0xc
800028a8:	00e44e63          	blt	x8,x14,800028c4 <_malloc_trim_r+0x78>
800028ac:	00000593          	li	x11,0
800028b0:	00090513          	mv	x10,x18
800028b4:	010010ef          	jal	800038c4 <_sbrk_r>
800028b8:	0089a783          	lw	x15,8(x19)
800028bc:	009787b3          	add	x15,x15,x9
800028c0:	02f50863          	beq	x10,x15,800028f0 <_malloc_trim_r+0xa4>
800028c4:	00090513          	mv	x10,x18
800028c8:	3ad000ef          	jal	80003474 <__malloc_unlock>
800028cc:	01c12083          	lw	x1,28(x2)
800028d0:	01812403          	lw	x8,24(x2)
800028d4:	01412483          	lw	x9,20(x2)
800028d8:	01012903          	lw	x18,16(x2)
800028dc:	00c12983          	lw	x19,12(x2)
800028e0:	00812a03          	lw	x20,8(x2)
800028e4:	00000513          	li	x10,0
800028e8:	02010113          	addi	x2,x2,32
800028ec:	00008067          	ret
800028f0:	408005b3          	neg	x11,x8
800028f4:	00090513          	mv	x10,x18
800028f8:	7cd000ef          	jal	800038c4 <_sbrk_r>
800028fc:	fff00793          	li	x15,-1
80002900:	04f50a63          	beq	x10,x15,80002954 <_malloc_trim_r+0x108>
80002904:	800077b7          	lui	x15,0x80007
80002908:	1ac78793          	addi	x15,x15,428 # 800071ac <__malloc_current_mallinfo>
8000290c:	0007a703          	lw	x14,0(x15)
80002910:	0089a683          	lw	x13,8(x19)
80002914:	408484b3          	sub	x9,x9,x8
80002918:	0014e493          	ori	x9,x9,1
8000291c:	40870733          	sub	x14,x14,x8
80002920:	00090513          	mv	x10,x18
80002924:	0096a223          	sw	x9,4(x13)
80002928:	00e7a023          	sw	x14,0(x15)
8000292c:	349000ef          	jal	80003474 <__malloc_unlock>
80002930:	01c12083          	lw	x1,28(x2)
80002934:	01812403          	lw	x8,24(x2)
80002938:	01412483          	lw	x9,20(x2)
8000293c:	01012903          	lw	x18,16(x2)
80002940:	00c12983          	lw	x19,12(x2)
80002944:	00812a03          	lw	x20,8(x2)
80002948:	00100513          	li	x10,1
8000294c:	02010113          	addi	x2,x2,32
80002950:	00008067          	ret
80002954:	00000593          	li	x11,0
80002958:	00090513          	mv	x10,x18
8000295c:	769000ef          	jal	800038c4 <_sbrk_r>
80002960:	0089a703          	lw	x14,8(x19)
80002964:	00f00693          	li	x13,15
80002968:	40e507b3          	sub	x15,x10,x14
8000296c:	f4f6dce3          	bge	x13,x15,800028c4 <_malloc_trim_r+0x78>
80002970:	800056b7          	lui	x13,0x80005
80002974:	8946a683          	lw	x13,-1900(x13) # 80004894 <__malloc_sbrk_base>
80002978:	0017e793          	ori	x15,x15,1
8000297c:	00f72223          	sw	x15,4(x14) # 1004 <_start-0x7fffeffc>
80002980:	40d50533          	sub	x10,x10,x13
80002984:	800076b7          	lui	x13,0x80007
80002988:	1aa6a623          	sw	x10,428(x13) # 800071ac <__malloc_current_mallinfo>
8000298c:	f39ff06f          	j	800028c4 <_malloc_trim_r+0x78>

80002990 <_free_r>:
80002990:	18058263          	beqz	x11,80002b14 <_free_r+0x184>
80002994:	ff010113          	addi	x2,x2,-16
80002998:	00812423          	sw	x8,8(x2)
8000299c:	00912223          	sw	x9,4(x2)
800029a0:	00058413          	mv	x8,x11
800029a4:	00050493          	mv	x9,x10
800029a8:	00112623          	sw	x1,12(x2)
800029ac:	2c5000ef          	jal	80003470 <__malloc_lock>
800029b0:	ffc42503          	lw	x10,-4(x8)
800029b4:	ff840713          	addi	x14,x8,-8
800029b8:	800045b7          	lui	x11,0x80004
800029bc:	ffe57793          	andi	x15,x10,-2
800029c0:	00f70633          	add	x12,x14,x15
800029c4:	48458593          	addi	x11,x11,1156 # 80004484 <__malloc_av_>
800029c8:	00462683          	lw	x13,4(x12)
800029cc:	0085a803          	lw	x16,8(x11)
800029d0:	ffc6f693          	andi	x13,x13,-4
800029d4:	1ac80263          	beq	x16,x12,80002b78 <_free_r+0x1e8>
800029d8:	00d62223          	sw	x13,4(x12)
800029dc:	00157513          	andi	x10,x10,1
800029e0:	00d60833          	add	x16,x12,x13
800029e4:	0a051063          	bnez	x10,80002a84 <_free_r+0xf4>
800029e8:	ff842303          	lw	x6,-8(x8)
800029ec:	00482803          	lw	x16,4(x16) # 10004 <_start-0x7ffefffc>
800029f0:	80004537          	lui	x10,0x80004
800029f4:	40670733          	sub	x14,x14,x6
800029f8:	00872883          	lw	x17,8(x14)
800029fc:	48c50513          	addi	x10,x10,1164 # 8000448c <__malloc_av_+0x8>
80002a00:	006787b3          	add	x15,x15,x6
80002a04:	00187813          	andi	x16,x16,1
80002a08:	14a88263          	beq	x17,x10,80002b4c <_free_r+0x1bc>
80002a0c:	00c72303          	lw	x6,12(x14)
80002a10:	0068a623          	sw	x6,12(x17) # 100000c <_start-0x7efffff4>
80002a14:	01132423          	sw	x17,8(x6)
80002a18:	1a080a63          	beqz	x16,80002bcc <_free_r+0x23c>
80002a1c:	0017e693          	ori	x13,x15,1
80002a20:	00d72223          	sw	x13,4(x14)
80002a24:	00f62023          	sw	x15,0(x12)
80002a28:	1ff00693          	li	x13,511
80002a2c:	06f6ec63          	bltu	x13,x15,80002aa4 <_free_r+0x114>
80002a30:	ff87f693          	andi	x13,x15,-8
80002a34:	00868693          	addi	x13,x13,8
80002a38:	0045a503          	lw	x10,4(x11)
80002a3c:	00d586b3          	add	x13,x11,x13
80002a40:	0006a603          	lw	x12,0(x13)
80002a44:	0057d813          	srli	x16,x15,0x5
80002a48:	00100793          	li	x15,1
80002a4c:	010797b3          	sll	x15,x15,x16
80002a50:	00a7e7b3          	or	x15,x15,x10
80002a54:	ff868513          	addi	x10,x13,-8
80002a58:	00a72623          	sw	x10,12(x14)
80002a5c:	00c72423          	sw	x12,8(x14)
80002a60:	00f5a223          	sw	x15,4(x11)
80002a64:	00e6a023          	sw	x14,0(x13)
80002a68:	00e62623          	sw	x14,12(x12)
80002a6c:	00812403          	lw	x8,8(x2)
80002a70:	00c12083          	lw	x1,12(x2)
80002a74:	00048513          	mv	x10,x9
80002a78:	00412483          	lw	x9,4(x2)
80002a7c:	01010113          	addi	x2,x2,16
80002a80:	1f50006f          	j	80003474 <__malloc_unlock>
80002a84:	00482503          	lw	x10,4(x16)
80002a88:	00157513          	andi	x10,x10,1
80002a8c:	08050663          	beqz	x10,80002b18 <_free_r+0x188>
80002a90:	0017e693          	ori	x13,x15,1
80002a94:	fed42e23          	sw	x13,-4(x8)
80002a98:	00f62023          	sw	x15,0(x12)
80002a9c:	1ff00693          	li	x13,511
80002aa0:	f8f6f8e3          	bgeu	x13,x15,80002a30 <_free_r+0xa0>
80002aa4:	0097d693          	srli	x13,x15,0x9
80002aa8:	00400613          	li	x12,4
80002aac:	12d66463          	bltu	x12,x13,80002bd4 <_free_r+0x244>
80002ab0:	0067d693          	srli	x13,x15,0x6
80002ab4:	03968513          	addi	x10,x13,57
80002ab8:	03868613          	addi	x12,x13,56
80002abc:	00351513          	slli	x10,x10,0x3
80002ac0:	00a58533          	add	x10,x11,x10
80002ac4:	00052683          	lw	x13,0(x10)
80002ac8:	ff850513          	addi	x10,x10,-8
80002acc:	00d51863          	bne	x10,x13,80002adc <_free_r+0x14c>
80002ad0:	15c0006f          	j	80002c2c <_free_r+0x29c>
80002ad4:	0086a683          	lw	x13,8(x13)
80002ad8:	00d50863          	beq	x10,x13,80002ae8 <_free_r+0x158>
80002adc:	0046a603          	lw	x12,4(x13)
80002ae0:	ffc67613          	andi	x12,x12,-4
80002ae4:	fec7e8e3          	bltu	x15,x12,80002ad4 <_free_r+0x144>
80002ae8:	00c6a503          	lw	x10,12(x13)
80002aec:	00a72623          	sw	x10,12(x14)
80002af0:	00d72423          	sw	x13,8(x14)
80002af4:	00812403          	lw	x8,8(x2)
80002af8:	00e52423          	sw	x14,8(x10)
80002afc:	00c12083          	lw	x1,12(x2)
80002b00:	00048513          	mv	x10,x9
80002b04:	00412483          	lw	x9,4(x2)
80002b08:	00e6a623          	sw	x14,12(x13)
80002b0c:	01010113          	addi	x2,x2,16
80002b10:	1650006f          	j	80003474 <__malloc_unlock>
80002b14:	00008067          	ret
80002b18:	80004537          	lui	x10,0x80004
80002b1c:	00d787b3          	add	x15,x15,x13
80002b20:	48c50513          	addi	x10,x10,1164 # 8000448c <__malloc_av_+0x8>
80002b24:	00862683          	lw	x13,8(x12)
80002b28:	0ea68063          	beq	x13,x10,80002c08 <_free_r+0x278>
80002b2c:	00c62803          	lw	x16,12(x12)
80002b30:	0017e513          	ori	x10,x15,1
80002b34:	00f70633          	add	x12,x14,x15
80002b38:	0106a623          	sw	x16,12(x13)
80002b3c:	00d82423          	sw	x13,8(x16)
80002b40:	00a72223          	sw	x10,4(x14)
80002b44:	00f62023          	sw	x15,0(x12)
80002b48:	ee1ff06f          	j	80002a28 <_free_r+0x98>
80002b4c:	14081063          	bnez	x16,80002c8c <_free_r+0x2fc>
80002b50:	00862583          	lw	x11,8(x12)
80002b54:	00c62603          	lw	x12,12(x12)
80002b58:	00f686b3          	add	x13,x13,x15
80002b5c:	0016e793          	ori	x15,x13,1
80002b60:	00c5a623          	sw	x12,12(x11)
80002b64:	00b62423          	sw	x11,8(x12)
80002b68:	00f72223          	sw	x15,4(x14)
80002b6c:	00d70733          	add	x14,x14,x13
80002b70:	00d72023          	sw	x13,0(x14)
80002b74:	ef9ff06f          	j	80002a6c <_free_r+0xdc>
80002b78:	00157513          	andi	x10,x10,1
80002b7c:	00d786b3          	add	x13,x15,x13
80002b80:	02051063          	bnez	x10,80002ba0 <_free_r+0x210>
80002b84:	ff842503          	lw	x10,-8(x8)
80002b88:	40a70733          	sub	x14,x14,x10
80002b8c:	00c72783          	lw	x15,12(x14)
80002b90:	00872603          	lw	x12,8(x14)
80002b94:	00a686b3          	add	x13,x13,x10
80002b98:	00f62623          	sw	x15,12(x12)
80002b9c:	00c7a423          	sw	x12,8(x15)
80002ba0:	800057b7          	lui	x15,0x80005
80002ba4:	0016e613          	ori	x12,x13,1
80002ba8:	8987a783          	lw	x15,-1896(x15) # 80004898 <__malloc_trim_threshold>
80002bac:	00c72223          	sw	x12,4(x14)
80002bb0:	00e5a423          	sw	x14,8(x11)
80002bb4:	eaf6ece3          	bltu	x13,x15,80002a6c <_free_r+0xdc>
80002bb8:	800077b7          	lui	x15,0x80007
80002bbc:	2107a583          	lw	x11,528(x15) # 80007210 <__malloc_top_pad>
80002bc0:	00048513          	mv	x10,x9
80002bc4:	c89ff0ef          	jal	8000284c <_malloc_trim_r>
80002bc8:	ea5ff06f          	j	80002a6c <_free_r+0xdc>
80002bcc:	00d787b3          	add	x15,x15,x13
80002bd0:	f55ff06f          	j	80002b24 <_free_r+0x194>
80002bd4:	01400613          	li	x12,20
80002bd8:	02d67063          	bgeu	x12,x13,80002bf8 <_free_r+0x268>
80002bdc:	05400613          	li	x12,84
80002be0:	06d66463          	bltu	x12,x13,80002c48 <_free_r+0x2b8>
80002be4:	00c7d693          	srli	x13,x15,0xc
80002be8:	06f68513          	addi	x10,x13,111
80002bec:	06e68613          	addi	x12,x13,110
80002bf0:	00351513          	slli	x10,x10,0x3
80002bf4:	ecdff06f          	j	80002ac0 <_free_r+0x130>
80002bf8:	05c68513          	addi	x10,x13,92
80002bfc:	05b68613          	addi	x12,x13,91
80002c00:	00351513          	slli	x10,x10,0x3
80002c04:	ebdff06f          	j	80002ac0 <_free_r+0x130>
80002c08:	00e5aa23          	sw	x14,20(x11)
80002c0c:	00e5a823          	sw	x14,16(x11)
80002c10:	0017e693          	ori	x13,x15,1
80002c14:	00a72623          	sw	x10,12(x14)
80002c18:	00a72423          	sw	x10,8(x14)
80002c1c:	00d72223          	sw	x13,4(x14)
80002c20:	00f70733          	add	x14,x14,x15
80002c24:	00f72023          	sw	x15,0(x14)
80002c28:	e45ff06f          	j	80002a6c <_free_r+0xdc>
80002c2c:	0045a803          	lw	x16,4(x11)
80002c30:	40265613          	srai	x12,x12,0x2
80002c34:	00100793          	li	x15,1
80002c38:	00c797b3          	sll	x15,x15,x12
80002c3c:	0107e7b3          	or	x15,x15,x16
80002c40:	00f5a223          	sw	x15,4(x11)
80002c44:	ea9ff06f          	j	80002aec <_free_r+0x15c>
80002c48:	15400613          	li	x12,340
80002c4c:	00d66c63          	bltu	x12,x13,80002c64 <_free_r+0x2d4>
80002c50:	00f7d693          	srli	x13,x15,0xf
80002c54:	07868513          	addi	x10,x13,120
80002c58:	07768613          	addi	x12,x13,119
80002c5c:	00351513          	slli	x10,x10,0x3
80002c60:	e61ff06f          	j	80002ac0 <_free_r+0x130>
80002c64:	55400613          	li	x12,1364
80002c68:	00d66c63          	bltu	x12,x13,80002c80 <_free_r+0x2f0>
80002c6c:	0127d693          	srli	x13,x15,0x12
80002c70:	07d68513          	addi	x10,x13,125
80002c74:	07c68613          	addi	x12,x13,124
80002c78:	00351513          	slli	x10,x10,0x3
80002c7c:	e45ff06f          	j	80002ac0 <_free_r+0x130>
80002c80:	3f800513          	li	x10,1016
80002c84:	07e00613          	li	x12,126
80002c88:	e39ff06f          	j	80002ac0 <_free_r+0x130>
80002c8c:	0017e693          	ori	x13,x15,1
80002c90:	00d72223          	sw	x13,4(x14)
80002c94:	00f62023          	sw	x15,0(x12)
80002c98:	dd5ff06f          	j	80002a6c <_free_r+0xdc>

80002c9c <_malloc_r>:
80002c9c:	fd010113          	addi	x2,x2,-48
80002ca0:	01312e23          	sw	x19,28(x2)
80002ca4:	02112623          	sw	x1,44(x2)
80002ca8:	02812423          	sw	x8,40(x2)
80002cac:	02912223          	sw	x9,36(x2)
80002cb0:	03212023          	sw	x18,32(x2)
80002cb4:	00b58793          	addi	x15,x11,11
80002cb8:	01600713          	li	x14,22
80002cbc:	00050993          	mv	x19,x10
80002cc0:	08f76263          	bltu	x14,x15,80002d44 <_malloc_r+0xa8>
80002cc4:	01000793          	li	x15,16
80002cc8:	20b7e663          	bltu	x15,x11,80002ed4 <_malloc_r+0x238>
80002ccc:	7a4000ef          	jal	80003470 <__malloc_lock>
80002cd0:	01800793          	li	x15,24
80002cd4:	00200593          	li	x11,2
80002cd8:	01000493          	li	x9,16
80002cdc:	80004937          	lui	x18,0x80004
80002ce0:	48490913          	addi	x18,x18,1156 # 80004484 <__malloc_av_>
80002ce4:	00f907b3          	add	x15,x18,x15
80002ce8:	0047a403          	lw	x8,4(x15)
80002cec:	ff878713          	addi	x14,x15,-8
80002cf0:	34e40e63          	beq	x8,x14,8000304c <_malloc_r+0x3b0>
80002cf4:	00442783          	lw	x15,4(x8)
80002cf8:	00c42683          	lw	x13,12(x8)
80002cfc:	00842603          	lw	x12,8(x8)
80002d00:	ffc7f793          	andi	x15,x15,-4
80002d04:	00f407b3          	add	x15,x8,x15
80002d08:	0047a703          	lw	x14,4(x15)
80002d0c:	00d62623          	sw	x13,12(x12)
80002d10:	00c6a423          	sw	x12,8(x13)
80002d14:	00176713          	ori	x14,x14,1
80002d18:	00098513          	mv	x10,x19
80002d1c:	00e7a223          	sw	x14,4(x15)
80002d20:	754000ef          	jal	80003474 <__malloc_unlock>
80002d24:	00840513          	addi	x10,x8,8
80002d28:	02c12083          	lw	x1,44(x2)
80002d2c:	02812403          	lw	x8,40(x2)
80002d30:	02412483          	lw	x9,36(x2)
80002d34:	02012903          	lw	x18,32(x2)
80002d38:	01c12983          	lw	x19,28(x2)
80002d3c:	03010113          	addi	x2,x2,48
80002d40:	00008067          	ret
80002d44:	ff87f493          	andi	x9,x15,-8
80002d48:	1807c663          	bltz	x15,80002ed4 <_malloc_r+0x238>
80002d4c:	18b4e463          	bltu	x9,x11,80002ed4 <_malloc_r+0x238>
80002d50:	720000ef          	jal	80003470 <__malloc_lock>
80002d54:	1f700793          	li	x15,503
80002d58:	4097f463          	bgeu	x15,x9,80003160 <_malloc_r+0x4c4>
80002d5c:	0094d793          	srli	x15,x9,0x9
80002d60:	18078263          	beqz	x15,80002ee4 <_malloc_r+0x248>
80002d64:	00400713          	li	x14,4
80002d68:	34f76a63          	bltu	x14,x15,800030bc <_malloc_r+0x420>
80002d6c:	0064d793          	srli	x15,x9,0x6
80002d70:	03978593          	addi	x11,x15,57
80002d74:	03878813          	addi	x16,x15,56
80002d78:	00359613          	slli	x12,x11,0x3
80002d7c:	80004937          	lui	x18,0x80004
80002d80:	48490913          	addi	x18,x18,1156 # 80004484 <__malloc_av_>
80002d84:	00c90633          	add	x12,x18,x12
80002d88:	00462403          	lw	x8,4(x12)
80002d8c:	ff860613          	addi	x12,x12,-8
80002d90:	02860863          	beq	x12,x8,80002dc0 <_malloc_r+0x124>
80002d94:	00f00513          	li	x10,15
80002d98:	0140006f          	j	80002dac <_malloc_r+0x110>
80002d9c:	00c42683          	lw	x13,12(x8)
80002da0:	2a075263          	bgez	x14,80003044 <_malloc_r+0x3a8>
80002da4:	00d60e63          	beq	x12,x13,80002dc0 <_malloc_r+0x124>
80002da8:	00068413          	mv	x8,x13
80002dac:	00442783          	lw	x15,4(x8)
80002db0:	ffc7f793          	andi	x15,x15,-4
80002db4:	40978733          	sub	x14,x15,x9
80002db8:	fee552e3          	bge	x10,x14,80002d9c <_malloc_r+0x100>
80002dbc:	00080593          	mv	x11,x16
80002dc0:	01092403          	lw	x8,16(x18)
80002dc4:	80004837          	lui	x16,0x80004
80002dc8:	48c80813          	addi	x16,x16,1164 # 8000448c <__malloc_av_+0x8>
80002dcc:	27040863          	beq	x8,x16,8000303c <_malloc_r+0x3a0>
80002dd0:	00442783          	lw	x15,4(x8)
80002dd4:	00f00693          	li	x13,15
80002dd8:	ffc7f793          	andi	x15,x15,-4
80002ddc:	40978733          	sub	x14,x15,x9
80002de0:	38e6c663          	blt	x13,x14,8000316c <_malloc_r+0x4d0>
80002de4:	01092a23          	sw	x16,20(x18)
80002de8:	01092823          	sw	x16,16(x18)
80002dec:	34075a63          	bgez	x14,80003140 <_malloc_r+0x4a4>
80002df0:	1ff00713          	li	x14,511
80002df4:	00492503          	lw	x10,4(x18)
80002df8:	26f76263          	bltu	x14,x15,8000305c <_malloc_r+0x3c0>
80002dfc:	ff87f713          	andi	x14,x15,-8
80002e00:	00870713          	addi	x14,x14,8
80002e04:	00e90733          	add	x14,x18,x14
80002e08:	00072683          	lw	x13,0(x14)
80002e0c:	0057d613          	srli	x12,x15,0x5
80002e10:	00100793          	li	x15,1
80002e14:	00c797b3          	sll	x15,x15,x12
80002e18:	00f56533          	or	x10,x10,x15
80002e1c:	ff870793          	addi	x15,x14,-8
80002e20:	00f42623          	sw	x15,12(x8)
80002e24:	00d42423          	sw	x13,8(x8)
80002e28:	00a92223          	sw	x10,4(x18)
80002e2c:	00872023          	sw	x8,0(x14)
80002e30:	0086a623          	sw	x8,12(x13)
80002e34:	4025d793          	srai	x15,x11,0x2
80002e38:	00100613          	li	x12,1
80002e3c:	00f61633          	sll	x12,x12,x15
80002e40:	0ac56a63          	bltu	x10,x12,80002ef4 <_malloc_r+0x258>
80002e44:	00a677b3          	and	x15,x12,x10
80002e48:	02079463          	bnez	x15,80002e70 <_malloc_r+0x1d4>
80002e4c:	00161613          	slli	x12,x12,0x1
80002e50:	ffc5f593          	andi	x11,x11,-4
80002e54:	00a677b3          	and	x15,x12,x10
80002e58:	00458593          	addi	x11,x11,4
80002e5c:	00079a63          	bnez	x15,80002e70 <_malloc_r+0x1d4>
80002e60:	00161613          	slli	x12,x12,0x1
80002e64:	00a677b3          	and	x15,x12,x10
80002e68:	00458593          	addi	x11,x11,4
80002e6c:	fe078ae3          	beqz	x15,80002e60 <_malloc_r+0x1c4>
80002e70:	00f00893          	li	x17,15
80002e74:	00359313          	slli	x6,x11,0x3
80002e78:	00690333          	add	x6,x18,x6
80002e7c:	00030513          	mv	x10,x6
80002e80:	00c52783          	lw	x15,12(x10)
80002e84:	00058e13          	mv	x28,x11
80002e88:	24f50c63          	beq	x10,x15,800030e0 <_malloc_r+0x444>
80002e8c:	0047a703          	lw	x14,4(x15)
80002e90:	00078413          	mv	x8,x15
80002e94:	00c7a783          	lw	x15,12(x15)
80002e98:	ffc77713          	andi	x14,x14,-4
80002e9c:	409706b3          	sub	x13,x14,x9
80002ea0:	24d8cc63          	blt	x17,x13,800030f8 <_malloc_r+0x45c>
80002ea4:	fe06c2e3          	bltz	x13,80002e88 <_malloc_r+0x1ec>
80002ea8:	00e40733          	add	x14,x8,x14
80002eac:	00472683          	lw	x13,4(x14)
80002eb0:	00842603          	lw	x12,8(x8)
80002eb4:	00098513          	mv	x10,x19
80002eb8:	0016e693          	ori	x13,x13,1
80002ebc:	00d72223          	sw	x13,4(x14)
80002ec0:	00f62623          	sw	x15,12(x12)
80002ec4:	00c7a423          	sw	x12,8(x15)
80002ec8:	5ac000ef          	jal	80003474 <__malloc_unlock>
80002ecc:	00840513          	addi	x10,x8,8
80002ed0:	e59ff06f          	j	80002d28 <_malloc_r+0x8c>
80002ed4:	00c00793          	li	x15,12
80002ed8:	00f9a023          	sw	x15,0(x19)
80002edc:	00000513          	li	x10,0
80002ee0:	e49ff06f          	j	80002d28 <_malloc_r+0x8c>
80002ee4:	20000613          	li	x12,512
80002ee8:	04000593          	li	x11,64
80002eec:	03f00813          	li	x16,63
80002ef0:	e8dff06f          	j	80002d7c <_malloc_r+0xe0>
80002ef4:	00892403          	lw	x8,8(x18)
80002ef8:	01612823          	sw	x22,16(x2)
80002efc:	00442783          	lw	x15,4(x8)
80002f00:	ffc7fb13          	andi	x22,x15,-4
80002f04:	009b6863          	bltu	x22,x9,80002f14 <_malloc_r+0x278>
80002f08:	409b0733          	sub	x14,x22,x9
80002f0c:	00f00793          	li	x15,15
80002f10:	0ee7c463          	blt	x15,x14,80002ff8 <_malloc_r+0x35c>
80002f14:	800077b7          	lui	x15,0x80007
80002f18:	01912223          	sw	x25,4(x2)
80002f1c:	80005cb7          	lui	x25,0x80005
80002f20:	01512a23          	sw	x21,20(x2)
80002f24:	894ca703          	lw	x14,-1900(x25) # 80004894 <__malloc_sbrk_base>
80002f28:	2107aa83          	lw	x21,528(x15) # 80007210 <__malloc_top_pad>
80002f2c:	01412c23          	sw	x20,24(x2)
80002f30:	01712623          	sw	x23,12(x2)
80002f34:	fff00793          	li	x15,-1
80002f38:	01640a33          	add	x20,x8,x22
80002f3c:	01548ab3          	add	x21,x9,x21
80002f40:	3cf70e63          	beq	x14,x15,8000331c <_malloc_r+0x680>
80002f44:	000017b7          	lui	x15,0x1
80002f48:	00f78793          	addi	x15,x15,15 # 100f <_start-0x7fffeff1>
80002f4c:	00fa8ab3          	add	x21,x21,x15
80002f50:	fffff7b7          	lui	x15,0xfffff
80002f54:	00fafab3          	and	x21,x21,x15
80002f58:	000a8593          	mv	x11,x21
80002f5c:	00098513          	mv	x10,x19
80002f60:	165000ef          	jal	800038c4 <_sbrk_r>
80002f64:	fff00793          	li	x15,-1
80002f68:	00050b93          	mv	x23,x10
80002f6c:	46f50263          	beq	x10,x15,800033d0 <_malloc_r+0x734>
80002f70:	01812423          	sw	x24,8(x2)
80002f74:	25456463          	bltu	x10,x20,800031bc <_malloc_r+0x520>
80002f78:	80007c37          	lui	x24,0x80007
80002f7c:	1acc0c13          	addi	x24,x24,428 # 800071ac <__malloc_current_mallinfo>
80002f80:	000c2583          	lw	x11,0(x24)
80002f84:	00ba85b3          	add	x11,x21,x11
80002f88:	00bc2023          	sw	x11,0(x24)
80002f8c:	00058713          	mv	x14,x11
80002f90:	2aaa1c63          	bne	x20,x10,80003248 <_malloc_r+0x5ac>
80002f94:	01451793          	slli	x15,x10,0x14
80002f98:	2a079863          	bnez	x15,80003248 <_malloc_r+0x5ac>
80002f9c:	00892b83          	lw	x23,8(x18)
80002fa0:	015b07b3          	add	x15,x22,x21
80002fa4:	0017e793          	ori	x15,x15,1
80002fa8:	00fba223          	sw	x15,4(x23)
80002fac:	80007737          	lui	x14,0x80007
80002fb0:	20c72683          	lw	x13,524(x14) # 8000720c <__malloc_max_sbrked_mem>
80002fb4:	00b6f463          	bgeu	x13,x11,80002fbc <_malloc_r+0x320>
80002fb8:	20b72623          	sw	x11,524(x14)
80002fbc:	80007737          	lui	x14,0x80007
80002fc0:	20872683          	lw	x13,520(x14) # 80007208 <__malloc_max_total_mem>
80002fc4:	00b6f463          	bgeu	x13,x11,80002fcc <_malloc_r+0x330>
80002fc8:	20b72423          	sw	x11,520(x14)
80002fcc:	00812c03          	lw	x24,8(x2)
80002fd0:	000b8413          	mv	x8,x23
80002fd4:	ffc7f793          	andi	x15,x15,-4
80002fd8:	40978733          	sub	x14,x15,x9
80002fdc:	3897ec63          	bltu	x15,x9,80003374 <_malloc_r+0x6d8>
80002fe0:	00f00793          	li	x15,15
80002fe4:	38e7d863          	bge	x15,x14,80003374 <_malloc_r+0x6d8>
80002fe8:	01812a03          	lw	x20,24(x2)
80002fec:	01412a83          	lw	x21,20(x2)
80002ff0:	00c12b83          	lw	x23,12(x2)
80002ff4:	00412c83          	lw	x25,4(x2)
80002ff8:	0014e793          	ori	x15,x9,1
80002ffc:	00f42223          	sw	x15,4(x8)
80003000:	009404b3          	add	x9,x8,x9
80003004:	00992423          	sw	x9,8(x18)
80003008:	00176713          	ori	x14,x14,1
8000300c:	00098513          	mv	x10,x19
80003010:	00e4a223          	sw	x14,4(x9)
80003014:	460000ef          	jal	80003474 <__malloc_unlock>
80003018:	02c12083          	lw	x1,44(x2)
8000301c:	00840513          	addi	x10,x8,8
80003020:	02812403          	lw	x8,40(x2)
80003024:	01012b03          	lw	x22,16(x2)
80003028:	02412483          	lw	x9,36(x2)
8000302c:	02012903          	lw	x18,32(x2)
80003030:	01c12983          	lw	x19,28(x2)
80003034:	03010113          	addi	x2,x2,48
80003038:	00008067          	ret
8000303c:	00492503          	lw	x10,4(x18)
80003040:	df5ff06f          	j	80002e34 <_malloc_r+0x198>
80003044:	00842603          	lw	x12,8(x8)
80003048:	cbdff06f          	j	80002d04 <_malloc_r+0x68>
8000304c:	00c7a403          	lw	x8,12(x15) # fffff00c <heap_end.0+0x7fff7df8>
80003050:	00258593          	addi	x11,x11,2
80003054:	d68786e3          	beq	x15,x8,80002dc0 <_malloc_r+0x124>
80003058:	c9dff06f          	j	80002cf4 <_malloc_r+0x58>
8000305c:	0097d713          	srli	x14,x15,0x9
80003060:	00400693          	li	x13,4
80003064:	14e6f263          	bgeu	x13,x14,800031a8 <_malloc_r+0x50c>
80003068:	01400693          	li	x13,20
8000306c:	32e6e663          	bltu	x13,x14,80003398 <_malloc_r+0x6fc>
80003070:	05c70613          	addi	x12,x14,92
80003074:	05b70693          	addi	x13,x14,91
80003078:	00361613          	slli	x12,x12,0x3
8000307c:	00c90633          	add	x12,x18,x12
80003080:	00062703          	lw	x14,0(x12)
80003084:	ff860613          	addi	x12,x12,-8
80003088:	00e61863          	bne	x12,x14,80003098 <_malloc_r+0x3fc>
8000308c:	2980006f          	j	80003324 <_malloc_r+0x688>
80003090:	00872703          	lw	x14,8(x14)
80003094:	00e60863          	beq	x12,x14,800030a4 <_malloc_r+0x408>
80003098:	00472683          	lw	x13,4(x14)
8000309c:	ffc6f693          	andi	x13,x13,-4
800030a0:	fed7e8e3          	bltu	x15,x13,80003090 <_malloc_r+0x3f4>
800030a4:	00c72603          	lw	x12,12(x14)
800030a8:	00c42623          	sw	x12,12(x8)
800030ac:	00e42423          	sw	x14,8(x8)
800030b0:	00862423          	sw	x8,8(x12)
800030b4:	00872623          	sw	x8,12(x14)
800030b8:	d7dff06f          	j	80002e34 <_malloc_r+0x198>
800030bc:	01400713          	li	x14,20
800030c0:	10f77863          	bgeu	x14,x15,800031d0 <_malloc_r+0x534>
800030c4:	05400713          	li	x14,84
800030c8:	2ef76663          	bltu	x14,x15,800033b4 <_malloc_r+0x718>
800030cc:	00c4d793          	srli	x15,x9,0xc
800030d0:	06f78593          	addi	x11,x15,111
800030d4:	06e78813          	addi	x16,x15,110
800030d8:	00359613          	slli	x12,x11,0x3
800030dc:	ca1ff06f          	j	80002d7c <_malloc_r+0xe0>
800030e0:	001e0e13          	addi	x28,x28,1
800030e4:	003e7793          	andi	x15,x28,3
800030e8:	00850513          	addi	x10,x10,8
800030ec:	10078063          	beqz	x15,800031ec <_malloc_r+0x550>
800030f0:	00c52783          	lw	x15,12(x10)
800030f4:	d95ff06f          	j	80002e88 <_malloc_r+0x1ec>
800030f8:	00842603          	lw	x12,8(x8)
800030fc:	0014e593          	ori	x11,x9,1
80003100:	00b42223          	sw	x11,4(x8)
80003104:	00f62623          	sw	x15,12(x12)
80003108:	00c7a423          	sw	x12,8(x15)
8000310c:	009404b3          	add	x9,x8,x9
80003110:	00992a23          	sw	x9,20(x18)
80003114:	00992823          	sw	x9,16(x18)
80003118:	0016e793          	ori	x15,x13,1
8000311c:	0104a623          	sw	x16,12(x9)
80003120:	0104a423          	sw	x16,8(x9)
80003124:	00f4a223          	sw	x15,4(x9)
80003128:	00e40733          	add	x14,x8,x14
8000312c:	00098513          	mv	x10,x19
80003130:	00d72023          	sw	x13,0(x14)
80003134:	340000ef          	jal	80003474 <__malloc_unlock>
80003138:	00840513          	addi	x10,x8,8
8000313c:	bedff06f          	j	80002d28 <_malloc_r+0x8c>
80003140:	00f407b3          	add	x15,x8,x15
80003144:	0047a703          	lw	x14,4(x15)
80003148:	00098513          	mv	x10,x19
8000314c:	00176713          	ori	x14,x14,1
80003150:	00e7a223          	sw	x14,4(x15)
80003154:	320000ef          	jal	80003474 <__malloc_unlock>
80003158:	00840513          	addi	x10,x8,8
8000315c:	bcdff06f          	j	80002d28 <_malloc_r+0x8c>
80003160:	0034d593          	srli	x11,x9,0x3
80003164:	00848793          	addi	x15,x9,8
80003168:	b75ff06f          	j	80002cdc <_malloc_r+0x40>
8000316c:	0014e693          	ori	x13,x9,1
80003170:	00d42223          	sw	x13,4(x8)
80003174:	009404b3          	add	x9,x8,x9
80003178:	00992a23          	sw	x9,20(x18)
8000317c:	00992823          	sw	x9,16(x18)
80003180:	00176693          	ori	x13,x14,1
80003184:	0104a623          	sw	x16,12(x9)
80003188:	0104a423          	sw	x16,8(x9)
8000318c:	00d4a223          	sw	x13,4(x9)
80003190:	00f407b3          	add	x15,x8,x15
80003194:	00098513          	mv	x10,x19
80003198:	00e7a023          	sw	x14,0(x15)
8000319c:	2d8000ef          	jal	80003474 <__malloc_unlock>
800031a0:	00840513          	addi	x10,x8,8
800031a4:	b85ff06f          	j	80002d28 <_malloc_r+0x8c>
800031a8:	0067d713          	srli	x14,x15,0x6
800031ac:	03970613          	addi	x12,x14,57
800031b0:	03870693          	addi	x13,x14,56
800031b4:	00361613          	slli	x12,x12,0x3
800031b8:	ec5ff06f          	j	8000307c <_malloc_r+0x3e0>
800031bc:	07240c63          	beq	x8,x18,80003234 <_malloc_r+0x598>
800031c0:	00892403          	lw	x8,8(x18)
800031c4:	00812c03          	lw	x24,8(x2)
800031c8:	00442783          	lw	x15,4(x8)
800031cc:	e09ff06f          	j	80002fd4 <_malloc_r+0x338>
800031d0:	05c78593          	addi	x11,x15,92
800031d4:	05b78813          	addi	x16,x15,91
800031d8:	00359613          	slli	x12,x11,0x3
800031dc:	ba1ff06f          	j	80002d7c <_malloc_r+0xe0>
800031e0:	00832783          	lw	x15,8(x6)
800031e4:	fff58593          	addi	x11,x11,-1
800031e8:	28679063          	bne	x15,x6,80003468 <_malloc_r+0x7cc>
800031ec:	0035f793          	andi	x15,x11,3
800031f0:	ff830313          	addi	x6,x6,-8
800031f4:	fe0796e3          	bnez	x15,800031e0 <_malloc_r+0x544>
800031f8:	00492703          	lw	x14,4(x18)
800031fc:	fff64793          	not	x15,x12
80003200:	00e7f7b3          	and	x15,x15,x14
80003204:	00f92223          	sw	x15,4(x18)
80003208:	00161613          	slli	x12,x12,0x1
8000320c:	cec7e4e3          	bltu	x15,x12,80002ef4 <_malloc_r+0x258>
80003210:	ce0602e3          	beqz	x12,80002ef4 <_malloc_r+0x258>
80003214:	00f67733          	and	x14,x12,x15
80003218:	00071a63          	bnez	x14,8000322c <_malloc_r+0x590>
8000321c:	00161613          	slli	x12,x12,0x1
80003220:	00f67733          	and	x14,x12,x15
80003224:	004e0e13          	addi	x28,x28,4
80003228:	fe070ae3          	beqz	x14,8000321c <_malloc_r+0x580>
8000322c:	000e0593          	mv	x11,x28
80003230:	c45ff06f          	j	80002e74 <_malloc_r+0x1d8>
80003234:	80007c37          	lui	x24,0x80007
80003238:	1acc0c13          	addi	x24,x24,428 # 800071ac <__malloc_current_mallinfo>
8000323c:	000c2703          	lw	x14,0(x24)
80003240:	00ea8733          	add	x14,x21,x14
80003244:	00ec2023          	sw	x14,0(x24)
80003248:	894ca683          	lw	x13,-1900(x25)
8000324c:	fff00793          	li	x15,-1
80003250:	18f68663          	beq	x13,x15,800033dc <_malloc_r+0x740>
80003254:	414b87b3          	sub	x15,x23,x20
80003258:	00e787b3          	add	x15,x15,x14
8000325c:	00fc2023          	sw	x15,0(x24)
80003260:	007bfc93          	andi	x25,x23,7
80003264:	0c0c8c63          	beqz	x25,8000333c <_malloc_r+0x6a0>
80003268:	419b8bb3          	sub	x23,x23,x25
8000326c:	000017b7          	lui	x15,0x1
80003270:	00878793          	addi	x15,x15,8 # 1008 <_start-0x7fffeff8>
80003274:	008b8b93          	addi	x23,x23,8
80003278:	419785b3          	sub	x11,x15,x25
8000327c:	015b8ab3          	add	x21,x23,x21
80003280:	415585b3          	sub	x11,x11,x21
80003284:	01459593          	slli	x11,x11,0x14
80003288:	0145da13          	srli	x20,x11,0x14
8000328c:	000a0593          	mv	x11,x20
80003290:	00098513          	mv	x10,x19
80003294:	630000ef          	jal	800038c4 <_sbrk_r>
80003298:	fff00793          	li	x15,-1
8000329c:	18f50063          	beq	x10,x15,8000341c <_malloc_r+0x780>
800032a0:	41750533          	sub	x10,x10,x23
800032a4:	01450ab3          	add	x21,x10,x20
800032a8:	000c2703          	lw	x14,0(x24)
800032ac:	01792423          	sw	x23,8(x18)
800032b0:	001ae793          	ori	x15,x21,1
800032b4:	00ea05b3          	add	x11,x20,x14
800032b8:	00bc2023          	sw	x11,0(x24)
800032bc:	00fba223          	sw	x15,4(x23)
800032c0:	cf2406e3          	beq	x8,x18,80002fac <_malloc_r+0x310>
800032c4:	00f00693          	li	x13,15
800032c8:	0b66f063          	bgeu	x13,x22,80003368 <_malloc_r+0x6cc>
800032cc:	00442703          	lw	x14,4(x8)
800032d0:	ff4b0793          	addi	x15,x22,-12
800032d4:	ff87f793          	andi	x15,x15,-8
800032d8:	00177713          	andi	x14,x14,1
800032dc:	00f76733          	or	x14,x14,x15
800032e0:	00e42223          	sw	x14,4(x8)
800032e4:	00500613          	li	x12,5
800032e8:	00f40733          	add	x14,x8,x15
800032ec:	00c72223          	sw	x12,4(x14)
800032f0:	00c72423          	sw	x12,8(x14)
800032f4:	00f6e663          	bltu	x13,x15,80003300 <_malloc_r+0x664>
800032f8:	004ba783          	lw	x15,4(x23)
800032fc:	cb1ff06f          	j	80002fac <_malloc_r+0x310>
80003300:	00840593          	addi	x11,x8,8
80003304:	00098513          	mv	x10,x19
80003308:	e88ff0ef          	jal	80002990 <_free_r>
8000330c:	00892b83          	lw	x23,8(x18)
80003310:	000c2583          	lw	x11,0(x24)
80003314:	004ba783          	lw	x15,4(x23)
80003318:	c95ff06f          	j	80002fac <_malloc_r+0x310>
8000331c:	010a8a93          	addi	x21,x21,16
80003320:	c39ff06f          	j	80002f58 <_malloc_r+0x2bc>
80003324:	4026d693          	srai	x13,x13,0x2
80003328:	00100793          	li	x15,1
8000332c:	00d797b3          	sll	x15,x15,x13
80003330:	00f56533          	or	x10,x10,x15
80003334:	00a92223          	sw	x10,4(x18)
80003338:	d71ff06f          	j	800030a8 <_malloc_r+0x40c>
8000333c:	015b85b3          	add	x11,x23,x21
80003340:	40b005b3          	neg	x11,x11
80003344:	01459593          	slli	x11,x11,0x14
80003348:	0145da13          	srli	x20,x11,0x14
8000334c:	000a0593          	mv	x11,x20
80003350:	00098513          	mv	x10,x19
80003354:	570000ef          	jal	800038c4 <_sbrk_r>
80003358:	fff00793          	li	x15,-1
8000335c:	f4f512e3          	bne	x10,x15,800032a0 <_malloc_r+0x604>
80003360:	00000a13          	li	x20,0
80003364:	f45ff06f          	j	800032a8 <_malloc_r+0x60c>
80003368:	00812c03          	lw	x24,8(x2)
8000336c:	00100793          	li	x15,1
80003370:	00fba223          	sw	x15,4(x23)
80003374:	00098513          	mv	x10,x19
80003378:	0fc000ef          	jal	80003474 <__malloc_unlock>
8000337c:	00000513          	li	x10,0
80003380:	01812a03          	lw	x20,24(x2)
80003384:	01412a83          	lw	x21,20(x2)
80003388:	01012b03          	lw	x22,16(x2)
8000338c:	00c12b83          	lw	x23,12(x2)
80003390:	00412c83          	lw	x25,4(x2)
80003394:	995ff06f          	j	80002d28 <_malloc_r+0x8c>
80003398:	05400693          	li	x13,84
8000339c:	04e6e463          	bltu	x13,x14,800033e4 <_malloc_r+0x748>
800033a0:	00c7d713          	srli	x14,x15,0xc
800033a4:	06f70613          	addi	x12,x14,111
800033a8:	06e70693          	addi	x13,x14,110
800033ac:	00361613          	slli	x12,x12,0x3
800033b0:	ccdff06f          	j	8000307c <_malloc_r+0x3e0>
800033b4:	15400713          	li	x14,340
800033b8:	04f76463          	bltu	x14,x15,80003400 <_malloc_r+0x764>
800033bc:	00f4d793          	srli	x15,x9,0xf
800033c0:	07878593          	addi	x11,x15,120
800033c4:	07778813          	addi	x16,x15,119
800033c8:	00359613          	slli	x12,x11,0x3
800033cc:	9b1ff06f          	j	80002d7c <_malloc_r+0xe0>
800033d0:	00892403          	lw	x8,8(x18)
800033d4:	00442783          	lw	x15,4(x8)
800033d8:	bfdff06f          	j	80002fd4 <_malloc_r+0x338>
800033dc:	897caa23          	sw	x23,-1900(x25)
800033e0:	e81ff06f          	j	80003260 <_malloc_r+0x5c4>
800033e4:	15400693          	li	x13,340
800033e8:	04e6e463          	bltu	x13,x14,80003430 <_malloc_r+0x794>
800033ec:	00f7d713          	srli	x14,x15,0xf
800033f0:	07870613          	addi	x12,x14,120
800033f4:	07770693          	addi	x13,x14,119
800033f8:	00361613          	slli	x12,x12,0x3
800033fc:	c81ff06f          	j	8000307c <_malloc_r+0x3e0>
80003400:	55400713          	li	x14,1364
80003404:	04f76463          	bltu	x14,x15,8000344c <_malloc_r+0x7b0>
80003408:	0124d793          	srli	x15,x9,0x12
8000340c:	07d78593          	addi	x11,x15,125
80003410:	07c78813          	addi	x16,x15,124
80003414:	00359613          	slli	x12,x11,0x3
80003418:	965ff06f          	j	80002d7c <_malloc_r+0xe0>
8000341c:	ff8c8c93          	addi	x25,x25,-8
80003420:	019a8ab3          	add	x21,x21,x25
80003424:	417a8ab3          	sub	x21,x21,x23
80003428:	00000a13          	li	x20,0
8000342c:	e7dff06f          	j	800032a8 <_malloc_r+0x60c>
80003430:	55400693          	li	x13,1364
80003434:	02e6e463          	bltu	x13,x14,8000345c <_malloc_r+0x7c0>
80003438:	0127d713          	srli	x14,x15,0x12
8000343c:	07d70613          	addi	x12,x14,125
80003440:	07c70693          	addi	x13,x14,124
80003444:	00361613          	slli	x12,x12,0x3
80003448:	c35ff06f          	j	8000307c <_malloc_r+0x3e0>
8000344c:	3f800613          	li	x12,1016
80003450:	07f00593          	li	x11,127
80003454:	07e00813          	li	x16,126
80003458:	925ff06f          	j	80002d7c <_malloc_r+0xe0>
8000345c:	3f800613          	li	x12,1016
80003460:	07e00693          	li	x13,126
80003464:	c19ff06f          	j	8000307c <_malloc_r+0x3e0>
80003468:	00492783          	lw	x15,4(x18)
8000346c:	d9dff06f          	j	80003208 <_malloc_r+0x56c>

80003470 <__malloc_lock>:
80003470:	00008067          	ret

80003474 <__malloc_unlock>:
80003474:	00008067          	ret

80003478 <_fclose_r>:
80003478:	ff010113          	addi	x2,x2,-16
8000347c:	00112623          	sw	x1,12(x2)
80003480:	01212023          	sw	x18,0(x2)
80003484:	02058863          	beqz	x11,800034b4 <_fclose_r+0x3c>
80003488:	00812423          	sw	x8,8(x2)
8000348c:	00912223          	sw	x9,4(x2)
80003490:	00058413          	mv	x8,x11
80003494:	00050493          	mv	x9,x10
80003498:	00050663          	beqz	x10,800034a4 <_fclose_r+0x2c>
8000349c:	03452783          	lw	x15,52(x10)
800034a0:	0c078c63          	beqz	x15,80003578 <_fclose_r+0x100>
800034a4:	00c41783          	lh	x15,12(x8)
800034a8:	02079263          	bnez	x15,800034cc <_fclose_r+0x54>
800034ac:	00812403          	lw	x8,8(x2)
800034b0:	00412483          	lw	x9,4(x2)
800034b4:	00c12083          	lw	x1,12(x2)
800034b8:	00000913          	li	x18,0
800034bc:	00090513          	mv	x10,x18
800034c0:	00012903          	lw	x18,0(x2)
800034c4:	01010113          	addi	x2,x2,16
800034c8:	00008067          	ret
800034cc:	00040593          	mv	x11,x8
800034d0:	00048513          	mv	x10,x9
800034d4:	0bc000ef          	jal	80003590 <__sflush_r>
800034d8:	02c42783          	lw	x15,44(x8)
800034dc:	00050913          	mv	x18,x10
800034e0:	00078a63          	beqz	x15,800034f4 <_fclose_r+0x7c>
800034e4:	01c42583          	lw	x11,28(x8)
800034e8:	00048513          	mv	x10,x9
800034ec:	000780e7          	jalr	x15
800034f0:	06054463          	bltz	x10,80003558 <_fclose_r+0xe0>
800034f4:	00c45783          	lhu	x15,12(x8)
800034f8:	0807f793          	andi	x15,x15,128
800034fc:	06079663          	bnez	x15,80003568 <_fclose_r+0xf0>
80003500:	03042583          	lw	x11,48(x8)
80003504:	00058c63          	beqz	x11,8000351c <_fclose_r+0xa4>
80003508:	04040793          	addi	x15,x8,64
8000350c:	00f58663          	beq	x11,x15,80003518 <_fclose_r+0xa0>
80003510:	00048513          	mv	x10,x9
80003514:	c7cff0ef          	jal	80002990 <_free_r>
80003518:	02042823          	sw	x0,48(x8)
8000351c:	04442583          	lw	x11,68(x8)
80003520:	00058863          	beqz	x11,80003530 <_fclose_r+0xb8>
80003524:	00048513          	mv	x10,x9
80003528:	c68ff0ef          	jal	80002990 <_free_r>
8000352c:	04042223          	sw	x0,68(x8)
80003530:	e39fe0ef          	jal	80002368 <__sfp_lock_acquire>
80003534:	00041623          	sh	x0,12(x8)
80003538:	e35fe0ef          	jal	8000236c <__sfp_lock_release>
8000353c:	00c12083          	lw	x1,12(x2)
80003540:	00812403          	lw	x8,8(x2)
80003544:	00412483          	lw	x9,4(x2)
80003548:	00090513          	mv	x10,x18
8000354c:	00012903          	lw	x18,0(x2)
80003550:	01010113          	addi	x2,x2,16
80003554:	00008067          	ret
80003558:	00c45783          	lhu	x15,12(x8)
8000355c:	fff00913          	li	x18,-1
80003560:	0807f793          	andi	x15,x15,128
80003564:	f8078ee3          	beqz	x15,80003500 <_fclose_r+0x88>
80003568:	01042583          	lw	x11,16(x8)
8000356c:	00048513          	mv	x10,x9
80003570:	c20ff0ef          	jal	80002990 <_free_r>
80003574:	f8dff06f          	j	80003500 <_fclose_r+0x88>
80003578:	dc9fe0ef          	jal	80002340 <__sinit>
8000357c:	f29ff06f          	j	800034a4 <_fclose_r+0x2c>

80003580 <fclose>:
80003580:	800057b7          	lui	x15,0x80005
80003584:	00050593          	mv	x11,x10
80003588:	8907a503          	lw	x10,-1904(x15) # 80004890 <_impure_ptr>
8000358c:	eedff06f          	j	80003478 <_fclose_r>

80003590 <__sflush_r>:
80003590:	00c59703          	lh	x14,12(x11)
80003594:	fe010113          	addi	x2,x2,-32
80003598:	00812c23          	sw	x8,24(x2)
8000359c:	01312623          	sw	x19,12(x2)
800035a0:	00112e23          	sw	x1,28(x2)
800035a4:	00877793          	andi	x15,x14,8
800035a8:	00058413          	mv	x8,x11
800035ac:	00050993          	mv	x19,x10
800035b0:	12079063          	bnez	x15,800036d0 <__sflush_r+0x140>
800035b4:	000017b7          	lui	x15,0x1
800035b8:	80078793          	addi	x15,x15,-2048 # 800 <_start-0x7ffff800>
800035bc:	0045a683          	lw	x13,4(x11)
800035c0:	00f767b3          	or	x15,x14,x15
800035c4:	00f59623          	sh	x15,12(x11)
800035c8:	18d05263          	blez	x13,8000374c <__sflush_r+0x1bc>
800035cc:	02842803          	lw	x16,40(x8)
800035d0:	0e080463          	beqz	x16,800036b8 <__sflush_r+0x128>
800035d4:	00912a23          	sw	x9,20(x2)
800035d8:	01371693          	slli	x13,x14,0x13
800035dc:	0009a483          	lw	x9,0(x19)
800035e0:	0009a023          	sw	x0,0(x19)
800035e4:	01c42583          	lw	x11,28(x8)
800035e8:	1606ce63          	bltz	x13,80003764 <__sflush_r+0x1d4>
800035ec:	00000613          	li	x12,0
800035f0:	00100693          	li	x13,1
800035f4:	00098513          	mv	x10,x19
800035f8:	000800e7          	jalr	x16
800035fc:	fff00793          	li	x15,-1
80003600:	00050613          	mv	x12,x10
80003604:	1af50463          	beq	x10,x15,800037ac <__sflush_r+0x21c>
80003608:	00c41783          	lh	x15,12(x8)
8000360c:	02842803          	lw	x16,40(x8)
80003610:	01c42583          	lw	x11,28(x8)
80003614:	0047f793          	andi	x15,x15,4
80003618:	00078e63          	beqz	x15,80003634 <__sflush_r+0xa4>
8000361c:	00442703          	lw	x14,4(x8)
80003620:	03042783          	lw	x15,48(x8)
80003624:	40e60633          	sub	x12,x12,x14
80003628:	00078663          	beqz	x15,80003634 <__sflush_r+0xa4>
8000362c:	03c42783          	lw	x15,60(x8)
80003630:	40f60633          	sub	x12,x12,x15
80003634:	00000693          	li	x13,0
80003638:	00098513          	mv	x10,x19
8000363c:	000800e7          	jalr	x16
80003640:	fff00793          	li	x15,-1
80003644:	12f51463          	bne	x10,x15,8000376c <__sflush_r+0x1dc>
80003648:	0009a683          	lw	x13,0(x19)
8000364c:	01d00793          	li	x15,29
80003650:	00c41703          	lh	x14,12(x8)
80003654:	16d7ea63          	bltu	x15,x13,800037c8 <__sflush_r+0x238>
80003658:	204007b7          	lui	x15,0x20400
8000365c:	00178793          	addi	x15,x15,1 # 20400001 <_start-0x5fbfffff>
80003660:	00d7d7b3          	srl	x15,x15,x13
80003664:	0017f793          	andi	x15,x15,1
80003668:	16078063          	beqz	x15,800037c8 <__sflush_r+0x238>
8000366c:	01042603          	lw	x12,16(x8)
80003670:	fffff7b7          	lui	x15,0xfffff
80003674:	7ff78793          	addi	x15,x15,2047 # fffff7ff <heap_end.0+0x7fff85eb>
80003678:	00f777b3          	and	x15,x14,x15
8000367c:	00f41623          	sh	x15,12(x8)
80003680:	00042223          	sw	x0,4(x8)
80003684:	00c42023          	sw	x12,0(x8)
80003688:	01371793          	slli	x15,x14,0x13
8000368c:	0007d463          	bgez	x15,80003694 <__sflush_r+0x104>
80003690:	10068263          	beqz	x13,80003794 <__sflush_r+0x204>
80003694:	03042583          	lw	x11,48(x8)
80003698:	0099a023          	sw	x9,0(x19)
8000369c:	10058463          	beqz	x11,800037a4 <__sflush_r+0x214>
800036a0:	04040793          	addi	x15,x8,64
800036a4:	00f58663          	beq	x11,x15,800036b0 <__sflush_r+0x120>
800036a8:	00098513          	mv	x10,x19
800036ac:	ae4ff0ef          	jal	80002990 <_free_r>
800036b0:	01412483          	lw	x9,20(x2)
800036b4:	02042823          	sw	x0,48(x8)
800036b8:	00000513          	li	x10,0
800036bc:	01c12083          	lw	x1,28(x2)
800036c0:	01812403          	lw	x8,24(x2)
800036c4:	00c12983          	lw	x19,12(x2)
800036c8:	02010113          	addi	x2,x2,32
800036cc:	00008067          	ret
800036d0:	01212823          	sw	x18,16(x2)
800036d4:	0105a903          	lw	x18,16(x11)
800036d8:	08090263          	beqz	x18,8000375c <__sflush_r+0x1cc>
800036dc:	00912a23          	sw	x9,20(x2)
800036e0:	0005a483          	lw	x9,0(x11)
800036e4:	00377713          	andi	x14,x14,3
800036e8:	0125a023          	sw	x18,0(x11)
800036ec:	412484b3          	sub	x9,x9,x18
800036f0:	00000793          	li	x15,0
800036f4:	00071463          	bnez	x14,800036fc <__sflush_r+0x16c>
800036f8:	0145a783          	lw	x15,20(x11)
800036fc:	00f42423          	sw	x15,8(x8)
80003700:	00904863          	bgtz	x9,80003710 <__sflush_r+0x180>
80003704:	0540006f          	j	80003758 <__sflush_r+0x1c8>
80003708:	00a90933          	add	x18,x18,x10
8000370c:	04905663          	blez	x9,80003758 <__sflush_r+0x1c8>
80003710:	02442783          	lw	x15,36(x8)
80003714:	01c42583          	lw	x11,28(x8)
80003718:	00048693          	mv	x13,x9
8000371c:	00090613          	mv	x12,x18
80003720:	00098513          	mv	x10,x19
80003724:	000780e7          	jalr	x15
80003728:	40a484b3          	sub	x9,x9,x10
8000372c:	fca04ee3          	bgtz	x10,80003708 <__sflush_r+0x178>
80003730:	00c41703          	lh	x14,12(x8)
80003734:	01012903          	lw	x18,16(x2)
80003738:	04076713          	ori	x14,x14,64
8000373c:	01412483          	lw	x9,20(x2)
80003740:	00e41623          	sh	x14,12(x8)
80003744:	fff00513          	li	x10,-1
80003748:	f75ff06f          	j	800036bc <__sflush_r+0x12c>
8000374c:	03c5a683          	lw	x13,60(x11)
80003750:	e6d04ee3          	bgtz	x13,800035cc <__sflush_r+0x3c>
80003754:	f65ff06f          	j	800036b8 <__sflush_r+0x128>
80003758:	01412483          	lw	x9,20(x2)
8000375c:	01012903          	lw	x18,16(x2)
80003760:	f59ff06f          	j	800036b8 <__sflush_r+0x128>
80003764:	05042603          	lw	x12,80(x8)
80003768:	eadff06f          	j	80003614 <__sflush_r+0x84>
8000376c:	00c41703          	lh	x14,12(x8)
80003770:	01042683          	lw	x13,16(x8)
80003774:	fffff7b7          	lui	x15,0xfffff
80003778:	7ff78793          	addi	x15,x15,2047 # fffff7ff <heap_end.0+0x7fff85eb>
8000377c:	00f777b3          	and	x15,x14,x15
80003780:	00f41623          	sh	x15,12(x8)
80003784:	00042223          	sw	x0,4(x8)
80003788:	00d42023          	sw	x13,0(x8)
8000378c:	01371793          	slli	x15,x14,0x13
80003790:	f007d2e3          	bgez	x15,80003694 <__sflush_r+0x104>
80003794:	03042583          	lw	x11,48(x8)
80003798:	04a42823          	sw	x10,80(x8)
8000379c:	0099a023          	sw	x9,0(x19)
800037a0:	f00590e3          	bnez	x11,800036a0 <__sflush_r+0x110>
800037a4:	01412483          	lw	x9,20(x2)
800037a8:	f11ff06f          	j	800036b8 <__sflush_r+0x128>
800037ac:	0009a783          	lw	x15,0(x19)
800037b0:	e4078ce3          	beqz	x15,80003608 <__sflush_r+0x78>
800037b4:	01d00713          	li	x14,29
800037b8:	00e78c63          	beq	x15,x14,800037d0 <__sflush_r+0x240>
800037bc:	01600713          	li	x14,22
800037c0:	00e78863          	beq	x15,x14,800037d0 <__sflush_r+0x240>
800037c4:	00c41703          	lh	x14,12(x8)
800037c8:	04076713          	ori	x14,x14,64
800037cc:	f71ff06f          	j	8000373c <__sflush_r+0x1ac>
800037d0:	0099a023          	sw	x9,0(x19)
800037d4:	01412483          	lw	x9,20(x2)
800037d8:	ee1ff06f          	j	800036b8 <__sflush_r+0x128>

800037dc <_fflush_r>:
800037dc:	fe010113          	addi	x2,x2,-32
800037e0:	00812c23          	sw	x8,24(x2)
800037e4:	00112e23          	sw	x1,28(x2)
800037e8:	00050413          	mv	x8,x10
800037ec:	00050663          	beqz	x10,800037f8 <_fflush_r+0x1c>
800037f0:	03452783          	lw	x15,52(x10)
800037f4:	02078a63          	beqz	x15,80003828 <_fflush_r+0x4c>
800037f8:	00c59783          	lh	x15,12(x11)
800037fc:	00079c63          	bnez	x15,80003814 <_fflush_r+0x38>
80003800:	01c12083          	lw	x1,28(x2)
80003804:	01812403          	lw	x8,24(x2)
80003808:	00000513          	li	x10,0
8000380c:	02010113          	addi	x2,x2,32
80003810:	00008067          	ret
80003814:	00040513          	mv	x10,x8
80003818:	01812403          	lw	x8,24(x2)
8000381c:	01c12083          	lw	x1,28(x2)
80003820:	02010113          	addi	x2,x2,32
80003824:	d6dff06f          	j	80003590 <__sflush_r>
80003828:	00b12623          	sw	x11,12(x2)
8000382c:	b15fe0ef          	jal	80002340 <__sinit>
80003830:	00c12583          	lw	x11,12(x2)
80003834:	fc5ff06f          	j	800037f8 <_fflush_r+0x1c>

80003838 <fflush>:
80003838:	06050263          	beqz	x10,8000389c <fflush+0x64>
8000383c:	800057b7          	lui	x15,0x80005
80003840:	00050593          	mv	x11,x10
80003844:	8907a503          	lw	x10,-1904(x15) # 80004890 <_impure_ptr>
80003848:	00050663          	beqz	x10,80003854 <fflush+0x1c>
8000384c:	03452783          	lw	x15,52(x10)
80003850:	00078c63          	beqz	x15,80003868 <fflush+0x30>
80003854:	00c59783          	lh	x15,12(x11)
80003858:	00079663          	bnez	x15,80003864 <fflush+0x2c>
8000385c:	00000513          	li	x10,0
80003860:	00008067          	ret
80003864:	d2dff06f          	j	80003590 <__sflush_r>
80003868:	fe010113          	addi	x2,x2,-32
8000386c:	00b12623          	sw	x11,12(x2)
80003870:	00a12423          	sw	x10,8(x2)
80003874:	00112e23          	sw	x1,28(x2)
80003878:	ac9fe0ef          	jal	80002340 <__sinit>
8000387c:	00c12583          	lw	x11,12(x2)
80003880:	00812503          	lw	x10,8(x2)
80003884:	00c59783          	lh	x15,12(x11)
80003888:	02079863          	bnez	x15,800038b8 <fflush+0x80>
8000388c:	01c12083          	lw	x1,28(x2)
80003890:	00000513          	li	x10,0
80003894:	02010113          	addi	x2,x2,32
80003898:	00008067          	ret
8000389c:	80004637          	lui	x12,0x80004
800038a0:	800035b7          	lui	x11,0x80003
800038a4:	80004537          	lui	x10,0x80004
800038a8:	47860613          	addi	x12,x12,1144 # 80004478 <__sglue>
800038ac:	7dc58593          	addi	x11,x11,2012 # 800037dc <_fflush_r>
800038b0:	35850513          	addi	x10,x10,856 # 80004358 <_impure_data>
800038b4:	aedfe06f          	j	800023a0 <_fwalk_sglue>
800038b8:	01c12083          	lw	x1,28(x2)
800038bc:	02010113          	addi	x2,x2,32
800038c0:	cd1ff06f          	j	80003590 <__sflush_r>

800038c4 <_sbrk_r>:
800038c4:	ff010113          	addi	x2,x2,-16
800038c8:	00812423          	sw	x8,8(x2)
800038cc:	00912223          	sw	x9,4(x2)
800038d0:	00050413          	mv	x8,x10
800038d4:	800074b7          	lui	x9,0x80007
800038d8:	00058513          	mv	x10,x11
800038dc:	00112623          	sw	x1,12(x2)
800038e0:	2004a223          	sw	x0,516(x9) # 80007204 <errno>
800038e4:	184000ef          	jal	80003a68 <_sbrk>
800038e8:	fff00793          	li	x15,-1
800038ec:	00f50c63          	beq	x10,x15,80003904 <_sbrk_r+0x40>
800038f0:	00c12083          	lw	x1,12(x2)
800038f4:	00812403          	lw	x8,8(x2)
800038f8:	00412483          	lw	x9,4(x2)
800038fc:	01010113          	addi	x2,x2,16
80003900:	00008067          	ret
80003904:	2044a783          	lw	x15,516(x9)
80003908:	fe0784e3          	beqz	x15,800038f0 <_sbrk_r+0x2c>
8000390c:	00c12083          	lw	x1,12(x2)
80003910:	00f42023          	sw	x15,0(x8)
80003914:	00812403          	lw	x8,8(x2)
80003918:	00412483          	lw	x9,4(x2)
8000391c:	01010113          	addi	x2,x2,16
80003920:	00008067          	ret

80003924 <_close>:
80003924:	ff010113          	addi	x2,x2,-16
80003928:	00112623          	sw	x1,12(x2)
8000392c:	00812423          	sw	x8,8(x2)
80003930:	03900893          	li	x17,57
80003934:	00000073          	ecall
80003938:	00050413          	mv	x8,x10
8000393c:	00054c63          	bltz	x10,80003954 <_close+0x30>
80003940:	00c12083          	lw	x1,12(x2)
80003944:	00040513          	mv	x10,x8
80003948:	00812403          	lw	x8,8(x2)
8000394c:	01010113          	addi	x2,x2,16
80003950:	00008067          	ret
80003954:	40800433          	neg	x8,x8
80003958:	1d0000ef          	jal	80003b28 <__errno>
8000395c:	00852023          	sw	x8,0(x10)
80003960:	fff00413          	li	x8,-1
80003964:	fddff06f          	j	80003940 <_close+0x1c>

80003968 <_gettimeofday>:
80003968:	fe010113          	addi	x2,x2,-32
8000396c:	00912a23          	sw	x9,20(x2)
80003970:	00112e23          	sw	x1,28(x2)
80003974:	00050493          	mv	x9,x10
80003978:	00812c23          	sw	x8,24(x2)
8000397c:	19300893          	li	x17,403
80003980:	00000513          	li	x10,0
80003984:	00010593          	mv	x11,x2
80003988:	00000073          	ecall
8000398c:	00050413          	mv	x8,x10
80003990:	02054e63          	bltz	x10,800039cc <_gettimeofday+0x64>
80003994:	00812783          	lw	x15,8(x2)
80003998:	3e800713          	li	x14,1000
8000399c:	00012603          	lw	x12,0(x2)
800039a0:	02e7c7b3          	div	x15,x15,x14
800039a4:	00412683          	lw	x13,4(x2)
800039a8:	01c12083          	lw	x1,28(x2)
800039ac:	00040513          	mv	x10,x8
800039b0:	01812403          	lw	x8,24(x2)
800039b4:	00c4a023          	sw	x12,0(x9)
800039b8:	00d4a223          	sw	x13,4(x9)
800039bc:	00f4a423          	sw	x15,8(x9)
800039c0:	01412483          	lw	x9,20(x2)
800039c4:	02010113          	addi	x2,x2,32
800039c8:	00008067          	ret
800039cc:	40800433          	neg	x8,x8
800039d0:	158000ef          	jal	80003b28 <__errno>
800039d4:	00852023          	sw	x8,0(x10)
800039d8:	fff00413          	li	x8,-1
800039dc:	fb9ff06f          	j	80003994 <_gettimeofday+0x2c>

800039e0 <_lseek>:
800039e0:	ff010113          	addi	x2,x2,-16
800039e4:	00112623          	sw	x1,12(x2)
800039e8:	00812423          	sw	x8,8(x2)
800039ec:	03e00893          	li	x17,62
800039f0:	00000073          	ecall
800039f4:	00050413          	mv	x8,x10
800039f8:	00054c63          	bltz	x10,80003a10 <_lseek+0x30>
800039fc:	00c12083          	lw	x1,12(x2)
80003a00:	00040513          	mv	x10,x8
80003a04:	00812403          	lw	x8,8(x2)
80003a08:	01010113          	addi	x2,x2,16
80003a0c:	00008067          	ret
80003a10:	40800433          	neg	x8,x8
80003a14:	114000ef          	jal	80003b28 <__errno>
80003a18:	00852023          	sw	x8,0(x10)
80003a1c:	fff00413          	li	x8,-1
80003a20:	fddff06f          	j	800039fc <_lseek+0x1c>

80003a24 <_read>:
80003a24:	ff010113          	addi	x2,x2,-16
80003a28:	00112623          	sw	x1,12(x2)
80003a2c:	00812423          	sw	x8,8(x2)
80003a30:	03f00893          	li	x17,63
80003a34:	00000073          	ecall
80003a38:	00050413          	mv	x8,x10
80003a3c:	00054c63          	bltz	x10,80003a54 <_read+0x30>
80003a40:	00c12083          	lw	x1,12(x2)
80003a44:	00040513          	mv	x10,x8
80003a48:	00812403          	lw	x8,8(x2)
80003a4c:	01010113          	addi	x2,x2,16
80003a50:	00008067          	ret
80003a54:	40800433          	neg	x8,x8
80003a58:	0d0000ef          	jal	80003b28 <__errno>
80003a5c:	00852023          	sw	x8,0(x10)
80003a60:	fff00413          	li	x8,-1
80003a64:	fddff06f          	j	80003a40 <_read+0x1c>

80003a68 <_sbrk>:
80003a68:	800076b7          	lui	x13,0x80007
80003a6c:	2146a703          	lw	x14,532(x13) # 80007214 <heap_end.0>
80003a70:	ff010113          	addi	x2,x2,-16
80003a74:	00112623          	sw	x1,12(x2)
80003a78:	00050793          	mv	x15,x10
80003a7c:	02071063          	bnez	x14,80003a9c <_sbrk+0x34>
80003a80:	0d600893          	li	x17,214
80003a84:	00000513          	li	x10,0
80003a88:	00000073          	ecall
80003a8c:	fff00613          	li	x12,-1
80003a90:	00050713          	mv	x14,x10
80003a94:	02c50a63          	beq	x10,x12,80003ac8 <_sbrk+0x60>
80003a98:	20a6aa23          	sw	x10,532(x13)
80003a9c:	0d600893          	li	x17,214
80003aa0:	00e78533          	add	x10,x15,x14
80003aa4:	00000073          	ecall
80003aa8:	2146a703          	lw	x14,532(x13)
80003aac:	00e787b3          	add	x15,x15,x14
80003ab0:	00f51c63          	bne	x10,x15,80003ac8 <_sbrk+0x60>
80003ab4:	00c12083          	lw	x1,12(x2)
80003ab8:	20a6aa23          	sw	x10,532(x13)
80003abc:	00070513          	mv	x10,x14
80003ac0:	01010113          	addi	x2,x2,16
80003ac4:	00008067          	ret
80003ac8:	060000ef          	jal	80003b28 <__errno>
80003acc:	00c12083          	lw	x1,12(x2)
80003ad0:	00c00793          	li	x15,12
80003ad4:	00f52023          	sw	x15,0(x10)
80003ad8:	fff00513          	li	x10,-1
80003adc:	01010113          	addi	x2,x2,16
80003ae0:	00008067          	ret

80003ae4 <_write>:
80003ae4:	ff010113          	addi	x2,x2,-16
80003ae8:	00112623          	sw	x1,12(x2)
80003aec:	00812423          	sw	x8,8(x2)
80003af0:	04000893          	li	x17,64
80003af4:	00000073          	ecall
80003af8:	00050413          	mv	x8,x10
80003afc:	00054c63          	bltz	x10,80003b14 <_write+0x30>
80003b00:	00c12083          	lw	x1,12(x2)
80003b04:	00040513          	mv	x10,x8
80003b08:	00812403          	lw	x8,8(x2)
80003b0c:	01010113          	addi	x2,x2,16
80003b10:	00008067          	ret
80003b14:	40800433          	neg	x8,x8
80003b18:	010000ef          	jal	80003b28 <__errno>
80003b1c:	00852023          	sw	x8,0(x10)
80003b20:	fff00413          	li	x8,-1
80003b24:	fddff06f          	j	80003b00 <_write+0x1c>

80003b28 <__errno>:
80003b28:	800057b7          	lui	x15,0x80005
80003b2c:	8907a503          	lw	x10,-1904(x15) # 80004890 <_impure_ptr>
80003b30:	00008067          	ret
