
elf/hello_world.elf:     file format elf32-littleriscv


Disassembly of section .text:

80000000 <_start>:
80000000:	00000013          	nop
80000004:	00000093          	li	x1,0
80000008:	00000113          	li	x2,0
8000000c:	00000193          	li	x3,0
80000010:	00000213          	li	x4,0
80000014:	00000293          	li	x5,0
80000018:	00000313          	li	x6,0
8000001c:	00000393          	li	x7,0
80000020:	00000413          	li	x8,0
80000024:	00000493          	li	x9,0
80000028:	00000513          	li	x10,0
8000002c:	00000593          	li	x11,0
80000030:	00000613          	li	x12,0
80000034:	00000693          	li	x13,0
80000038:	00000713          	li	x14,0
8000003c:	00000793          	li	x15,0
80000040:	00000813          	li	x16,0
80000044:	00000893          	li	x17,0
80000048:	00000913          	li	x18,0
8000004c:	00000993          	li	x19,0
80000050:	00000a13          	li	x20,0
80000054:	00000a93          	li	x21,0
80000058:	00000b13          	li	x22,0
8000005c:	00000b93          	li	x23,0
80000060:	00000c13          	li	x24,0
80000064:	00000c93          	li	x25,0
80000068:	00000d13          	li	x26,0
8000006c:	00000d93          	li	x27,0
80000070:	00000e13          	li	x28,0
80000074:	00000e93          	li	x29,0
80000078:	00000f13          	li	x30,0
8000007c:	00000f93          	li	x31,0
80000080:	80100137          	lui	x2,0x80100
80000084:	00000297          	auipc	x5,0x0
80000088:	0d828293          	addi	x5,x5,216 # 8000015c <main>
8000008c:	00028067          	jr	x5

80000090 <putchar>:
80000090:	000807b7          	lui	x15,0x80
80000094:	00a7a023          	sw	x10,0(x15) # 80000 <_start-0x7ff80000>
80000098:	00000513          	li	x10,0
8000009c:	00008067          	ret

800000a0 <strlen>:
800000a0:	00054783          	lbu	x15,0(x10)
800000a4:	00078e63          	beqz	x15,800000c0 <strlen+0x20>
800000a8:	00050793          	mv	x15,x10
800000ac:	0017c703          	lbu	x14,1(x15)
800000b0:	00178793          	addi	x15,x15,1
800000b4:	fe071ce3          	bnez	x14,800000ac <strlen+0xc>
800000b8:	40a78533          	sub	x10,x15,x10
800000bc:	00008067          	ret
800000c0:	00000513          	li	x10,0
800000c4:	00008067          	ret

800000c8 <strnlen>:
800000c8:	00b506b3          	add	x13,x10,x11
800000cc:	00050793          	mv	x15,x10
800000d0:	00059863          	bnez	x11,800000e0 <strnlen+0x18>
800000d4:	0240006f          	j	800000f8 <strnlen+0x30>
800000d8:	00178793          	addi	x15,x15,1
800000dc:	00f68a63          	beq	x13,x15,800000f0 <strnlen+0x28>
800000e0:	0007c703          	lbu	x14,0(x15)
800000e4:	fe071ae3          	bnez	x14,800000d8 <strnlen+0x10>
800000e8:	40a78533          	sub	x10,x15,x10
800000ec:	00008067          	ret
800000f0:	40a68533          	sub	x10,x13,x10
800000f4:	00008067          	ret
800000f8:	00000513          	li	x10,0
800000fc:	00008067          	ret

80000100 <memset>:
80000100:	00c567b3          	or	x15,x10,x12
80000104:	0037f793          	andi	x15,x15,3
80000108:	00c50633          	add	x12,x10,x12
8000010c:	02078063          	beqz	x15,8000012c <memset+0x2c>
80000110:	0ff5f593          	zext.b	x11,x11
80000114:	00050793          	mv	x15,x10
80000118:	04c57063          	bgeu	x10,x12,80000158 <memset+0x58>
8000011c:	00178793          	addi	x15,x15,1
80000120:	feb78fa3          	sb	x11,-1(x15)
80000124:	fef61ce3          	bne	x12,x15,8000011c <memset+0x1c>
80000128:	00008067          	ret
8000012c:	0ff5f593          	zext.b	x11,x11
80000130:	00859713          	slli	x14,x11,0x8
80000134:	00b70733          	add	x14,x14,x11
80000138:	01071793          	slli	x15,x14,0x10
8000013c:	00f70733          	add	x14,x14,x15
80000140:	fec574e3          	bgeu	x10,x12,80000128 <memset+0x28>
80000144:	00050793          	mv	x15,x10
80000148:	00478793          	addi	x15,x15,4
8000014c:	fee7ae23          	sw	x14,-4(x15)
80000150:	fec7ece3          	bltu	x15,x12,80000148 <memset+0x48>
80000154:	00008067          	ret
80000158:	00008067          	ret

8000015c <main>:
8000015c:	000807b7          	lui	x15,0x80
80000160:	04800f13          	li	x30,72
80000164:	04500e93          	li	x29,69
80000168:	04c00713          	li	x14,76
8000016c:	04f00693          	li	x13,79
80000170:	02c00e13          	li	x28,44
80000174:	02000313          	li	x6,32
80000178:	05700893          	li	x17,87
8000017c:	05200813          	li	x16,82
80000180:	04400513          	li	x10,68
80000184:	02100593          	li	x11,33
80000188:	00a00613          	li	x12,10
8000018c:	01e7a023          	sw	x30,0(x15) # 80000 <_start-0x7ff80000>
80000190:	01d7a023          	sw	x29,0(x15)
80000194:	00e7a023          	sw	x14,0(x15)
80000198:	00e7a023          	sw	x14,0(x15)
8000019c:	00d7a023          	sw	x13,0(x15)
800001a0:	01c7a023          	sw	x28,0(x15)
800001a4:	0067a023          	sw	x6,0(x15)
800001a8:	0117a023          	sw	x17,0(x15)
800001ac:	00d7a023          	sw	x13,0(x15)
800001b0:	0107a023          	sw	x16,0(x15)
800001b4:	00e7a023          	sw	x14,0(x15)
800001b8:	00a7a023          	sw	x10,0(x15)
800001bc:	00b7a023          	sw	x11,0(x15)
800001c0:	00c7a023          	sw	x12,0(x15)
800001c4:	fc9ff06f          	j	8000018c <main+0x30>
