
elf/qsort.elf:     file format elf32-littleriscv


Disassembly of section .text:

80000000 <_start>:
80000000:	00000013          	nop
80000004:	00000093          	li	x1,0
80000008:	00000113          	li	x2,0
8000000c:	00000193          	li	x3,0
80000010:	00000213          	li	x4,0
80000014:	00000293          	li	x5,0
80000018:	00000313          	li	x6,0
8000001c:	00000393          	li	x7,0
80000020:	00000413          	li	x8,0
80000024:	00000493          	li	x9,0
80000028:	00000513          	li	x10,0
8000002c:	00000593          	li	x11,0
80000030:	00000613          	li	x12,0
80000034:	00000693          	li	x13,0
80000038:	00000713          	li	x14,0
8000003c:	00000793          	li	x15,0
80000040:	00000813          	li	x16,0
80000044:	00000893          	li	x17,0
80000048:	00000913          	li	x18,0
8000004c:	00000993          	li	x19,0
80000050:	00000a13          	li	x20,0
80000054:	00000a93          	li	x21,0
80000058:	00000b13          	li	x22,0
8000005c:	00000b93          	li	x23,0
80000060:	00000c13          	li	x24,0
80000064:	00000c93          	li	x25,0
80000068:	00000d13          	li	x26,0
8000006c:	00000d93          	li	x27,0
80000070:	00000e13          	li	x28,0
80000074:	00000e93          	li	x29,0
80000078:	00000f13          	li	x30,0
8000007c:	00000f93          	li	x31,0
80000080:	80100137          	lui	x2,0x80100
80000084:	00000297          	auipc	x5,0x0
80000088:	25c28293          	addi	x5,x5,604 # 800002e0 <main>
8000008c:	00028067          	jr	x5

80000090 <putchar>:
80000090:	000807b7          	lui	x15,0x80
80000094:	00a7a023          	sw	x10,0(x15) # 80000 <_start-0x7ff80000>
80000098:	00000513          	li	x10,0
8000009c:	00008067          	ret

800000a0 <strlen>:
800000a0:	00054783          	lbu	x15,0(x10)
800000a4:	00078e63          	beqz	x15,800000c0 <strlen+0x20>
800000a8:	00050793          	mv	x15,x10
800000ac:	0017c703          	lbu	x14,1(x15)
800000b0:	00178793          	addi	x15,x15,1
800000b4:	fe071ce3          	bnez	x14,800000ac <strlen+0xc>
800000b8:	40a78533          	sub	x10,x15,x10
800000bc:	00008067          	ret
800000c0:	00000513          	li	x10,0
800000c4:	00008067          	ret

800000c8 <strnlen>:
800000c8:	00b506b3          	add	x13,x10,x11
800000cc:	00050793          	mv	x15,x10
800000d0:	00059863          	bnez	x11,800000e0 <strnlen+0x18>
800000d4:	0240006f          	j	800000f8 <strnlen+0x30>
800000d8:	00178793          	addi	x15,x15,1
800000dc:	00f68a63          	beq	x13,x15,800000f0 <strnlen+0x28>
800000e0:	0007c703          	lbu	x14,0(x15)
800000e4:	fe071ae3          	bnez	x14,800000d8 <strnlen+0x10>
800000e8:	40a78533          	sub	x10,x15,x10
800000ec:	00008067          	ret
800000f0:	40a68533          	sub	x10,x13,x10
800000f4:	00008067          	ret
800000f8:	00000513          	li	x10,0
800000fc:	00008067          	ret

80000100 <memset>:
80000100:	00c567b3          	or	x15,x10,x12
80000104:	0037f793          	andi	x15,x15,3
80000108:	00c50633          	add	x12,x10,x12
8000010c:	02078063          	beqz	x15,8000012c <memset+0x2c>
80000110:	0ff5f593          	zext.b	x11,x11
80000114:	00050793          	mv	x15,x10
80000118:	04c57063          	bgeu	x10,x12,80000158 <memset+0x58>
8000011c:	00178793          	addi	x15,x15,1
80000120:	feb78fa3          	sb	x11,-1(x15)
80000124:	fef61ce3          	bne	x12,x15,8000011c <memset+0x1c>
80000128:	00008067          	ret
8000012c:	0ff5f593          	zext.b	x11,x11
80000130:	00859713          	slli	x14,x11,0x8
80000134:	00b70733          	add	x14,x14,x11
80000138:	01071793          	slli	x15,x14,0x10
8000013c:	00f70733          	add	x14,x14,x15
80000140:	fec574e3          	bgeu	x10,x12,80000128 <memset+0x28>
80000144:	00050793          	mv	x15,x10
80000148:	00478793          	addi	x15,x15,4
8000014c:	fee7ae23          	sw	x14,-4(x15)
80000150:	fec7ece3          	bltu	x15,x12,80000148 <memset+0x48>
80000154:	00008067          	ret
80000158:	00008067          	ret

8000015c <sort>:
8000015c:	f3010113          	addi	x2,x2,-208 # 800fff30 <__bss_end+0xfbbd4>
80000160:	00251513          	slli	x10,x10,0x2
80000164:	00810f13          	addi	x30,x2,8
80000168:	40000fb7          	lui	x31,0x40000
8000016c:	00058e93          	mv	x29,x11
80000170:	00a588b3          	add	x17,x11,x10
80000174:	000f0313          	mv	x6,x30
80000178:	00458593          	addi	x11,x11,4
8000017c:	02400e13          	li	x28,36
80000180:	ffff8f93          	addi	x31,x31,-1 # 3fffffff <_start-0x40000001>
80000184:	40b887b3          	sub	x15,x17,x11
80000188:	04fe4863          	blt	x28,x15,800001d8 <sort+0x7c>
8000018c:	ffc58613          	addi	x12,x11,-4
80000190:	0315f863          	bgeu	x11,x17,800001c0 <sort+0x64>
80000194:	0005a683          	lw	x13,0(x11)
80000198:	00058793          	mv	x15,x11
8000019c:	0100006f          	j	800001ac <sort+0x50>
800001a0:	00e7a023          	sw	x14,0(x15)
800001a4:	ffc78793          	addi	x15,x15,-4
800001a8:	00f60663          	beq	x12,x15,800001b4 <sort+0x58>
800001ac:	ffc7a703          	lw	x14,-4(x15)
800001b0:	fee6c8e3          	blt	x13,x14,800001a0 <sort+0x44>
800001b4:	00d7a023          	sw	x13,0(x15)
800001b8:	00458593          	addi	x11,x11,4
800001bc:	fd15ece3          	bltu	x11,x17,80000194 <sort+0x38>
800001c0:	11e30c63          	beq	x6,x30,800002d8 <sort+0x17c>
800001c4:	00032883          	lw	x17,0(x6)
800001c8:	ffc32583          	lw	x11,-4(x6)
800001cc:	ff830313          	addi	x6,x6,-8
800001d0:	40b887b3          	sub	x15,x17,x11
800001d4:	fafe5ce3          	bge	x28,x15,8000018c <sort+0x30>
800001d8:	41d58733          	sub	x14,x11,x29
800001dc:	41d887b3          	sub	x15,x17,x29
800001e0:	4027d793          	srai	x15,x15,0x2
800001e4:	40275713          	srai	x14,x14,0x2
800001e8:	00f70733          	add	x14,x14,x15
800001ec:	01f75793          	srli	x15,x14,0x1f
800001f0:	00e787b3          	add	x15,x15,x14
800001f4:	4017d793          	srai	x15,x15,0x1
800001f8:	01f787b3          	add	x15,x15,x31
800001fc:	00279793          	slli	x15,x15,0x2
80000200:	0005a703          	lw	x14,0(x11)
80000204:	00fe87b3          	add	x15,x29,x15
80000208:	0007a683          	lw	x13,0(x15)
8000020c:	00e7a023          	sw	x14,0(x15)
80000210:	ffc5a703          	lw	x14,-4(x11)
80000214:	00d5a023          	sw	x13,0(x11)
80000218:	ffc8a783          	lw	x15,-4(x17)
8000021c:	00e7da63          	bge	x15,x14,80000230 <sort+0xd4>
80000220:	fef5ae23          	sw	x15,-4(x11)
80000224:	fee8ae23          	sw	x14,-4(x17)
80000228:	0005a683          	lw	x13,0(x11)
8000022c:	00070793          	mv	x15,x14
80000230:	00d7d863          	bge	x15,x13,80000240 <sort+0xe4>
80000234:	00f5a023          	sw	x15,0(x11)
80000238:	fed8ae23          	sw	x13,-4(x17)
8000023c:	0005a683          	lw	x13,0(x11)
80000240:	ffc5a783          	lw	x15,-4(x11)
80000244:	00f6d863          	bge	x13,x15,80000254 <sort+0xf8>
80000248:	fed5ae23          	sw	x13,-4(x11)
8000024c:	00f5a023          	sw	x15,0(x11)
80000250:	00078693          	mv	x13,x15
80000254:	00458513          	addi	x10,x11,4
80000258:	00088793          	mv	x15,x17
8000025c:	00052803          	lw	x16,0(x10)
80000260:	00450513          	addi	x10,x10,4
80000264:	fed84ce3          	blt	x16,x13,8000025c <sort+0x100>
80000268:	ff87a703          	lw	x14,-8(x15)
8000026c:	00078613          	mv	x12,x15
80000270:	ffc78793          	addi	x15,x15,-4
80000274:	fee6cae3          	blt	x13,x14,80000268 <sort+0x10c>
80000278:	00a7e863          	bltu	x15,x10,80000288 <sort+0x12c>
8000027c:	fee52e23          	sw	x14,-4(x10)
80000280:	ff07ae23          	sw	x16,-4(x15)
80000284:	fd9ff06f          	j	8000025c <sort+0x100>
80000288:	40a88833          	sub	x16,x17,x10
8000028c:	00e5a023          	sw	x14,0(x11)
80000290:	40285713          	srai	x14,x16,0x2
80000294:	40b78833          	sub	x16,x15,x11
80000298:	fed7ae23          	sw	x13,-4(x15)
8000029c:	00170793          	addi	x15,x14,1
800002a0:	40285713          	srai	x14,x16,0x2
800002a4:	00830693          	addi	x13,x6,8
800002a8:	ff860613          	addi	x12,x12,-8
800002ac:	00e7cc63          	blt	x15,x14,800002c4 <sort+0x168>
800002b0:	01132423          	sw	x17,8(x6)
800002b4:	00a32223          	sw	x10,4(x6)
800002b8:	00060893          	mv	x17,x12
800002bc:	00068313          	mv	x6,x13
800002c0:	ec5ff06f          	j	80000184 <sort+0x28>
800002c4:	00b32223          	sw	x11,4(x6)
800002c8:	00c32423          	sw	x12,8(x6)
800002cc:	00050593          	mv	x11,x10
800002d0:	00068313          	mv	x6,x13
800002d4:	eb1ff06f          	j	80000184 <sort+0x28>
800002d8:	0d010113          	addi	x2,x2,208
800002dc:	00008067          	ret

800002e0 <main>:
800002e0:	ff010113          	addi	x2,x2,-16
800002e4:	00812423          	sw	x8,8(x2)
800002e8:	00001537          	lui	x10,0x1
800002ec:	80002437          	lui	x8,0x80002
800002f0:	80050513          	addi	x10,x10,-2048 # 800 <_start-0x7ffff800>
800002f4:	35c40593          	addi	x11,x8,860 # 8000235c <input_data>
800002f8:	00112623          	sw	x1,12(x2)
800002fc:	e61ff0ef          	jal	8000015c <sort>
80000300:	80000737          	lui	x14,0x80000
80000304:	35c40793          	addi	x15,x8,860
80000308:	35c70713          	addi	x14,x14,860 # 8000035c <verify_data>
8000030c:	00000513          	li	x10,0
80000310:	01c0006f          	j	8000032c <main+0x4c>
80000314:	00250513          	addi	x10,x10,2
80000318:	80050693          	addi	x13,x10,-2048
8000031c:	02b81463          	bne	x16,x11,80000344 <main+0x64>
80000320:	00878793          	addi	x15,x15,8
80000324:	00870713          	addi	x14,x14,8
80000328:	02068663          	beqz	x13,80000354 <main+0x74>
8000032c:	0007a603          	lw	x12,0(x15)
80000330:	00072683          	lw	x13,0(x14)
80000334:	0047a803          	lw	x16,4(x15)
80000338:	00472583          	lw	x11,4(x14)
8000033c:	fcd60ce3          	beq	x12,x13,80000314 <main+0x34>
80000340:	00150513          	addi	x10,x10,1
80000344:	00c12083          	lw	x1,12(x2)
80000348:	00812403          	lw	x8,8(x2)
8000034c:	01010113          	addi	x2,x2,16
80000350:	00008067          	ret
80000354:	00000513          	li	x10,0
80000358:	fedff06f          	j	80000344 <main+0x64>
