
elf/towers.elf:     file format elf32-littleriscv


Disassembly of section .text:

80000000 <_start>:
80000000:	00000013          	nop
80000004:	00000093          	li	x1,0
80000008:	00000113          	li	x2,0
8000000c:	00000193          	li	x3,0
80000010:	00000213          	li	x4,0
80000014:	00000293          	li	x5,0
80000018:	00000313          	li	x6,0
8000001c:	00000393          	li	x7,0
80000020:	00000413          	li	x8,0
80000024:	00000493          	li	x9,0
80000028:	00000513          	li	x10,0
8000002c:	00000593          	li	x11,0
80000030:	00000613          	li	x12,0
80000034:	00000693          	li	x13,0
80000038:	00000713          	li	x14,0
8000003c:	00000793          	li	x15,0
80000040:	00000813          	li	x16,0
80000044:	00000893          	li	x17,0
80000048:	00000913          	li	x18,0
8000004c:	00000993          	li	x19,0
80000050:	00000a13          	li	x20,0
80000054:	00000a93          	li	x21,0
80000058:	00000b13          	li	x22,0
8000005c:	00000b93          	li	x23,0
80000060:	00000c13          	li	x24,0
80000064:	00000c93          	li	x25,0
80000068:	00000d13          	li	x26,0
8000006c:	00000d93          	li	x27,0
80000070:	00000e13          	li	x28,0
80000074:	00000e93          	li	x29,0
80000078:	00000f13          	li	x30,0
8000007c:	00000f93          	li	x31,0
80000080:	80100137          	lui	x2,0x80100
80000084:	00000297          	auipc	x5,0x0
80000088:	76428293          	addi	x5,x5,1892 # 800007e8 <main>
8000008c:	00028067          	jr	x5

80000090 <putchar>:
80000090:	000807b7          	lui	x15,0x80
80000094:	00a7a023          	sw	x10,0(x15) # 80000 <_start-0x7ff80000>
80000098:	00000513          	li	x10,0
8000009c:	00008067          	ret

800000a0 <strlen>:
800000a0:	00054783          	lbu	x15,0(x10)
800000a4:	00078e63          	beqz	x15,800000c0 <strlen+0x20>
800000a8:	00050793          	mv	x15,x10
800000ac:	0017c703          	lbu	x14,1(x15)
800000b0:	00178793          	addi	x15,x15,1
800000b4:	fe071ce3          	bnez	x14,800000ac <strlen+0xc>
800000b8:	40a78533          	sub	x10,x15,x10
800000bc:	00008067          	ret
800000c0:	00000513          	li	x10,0
800000c4:	00008067          	ret

800000c8 <strnlen>:
800000c8:	00b506b3          	add	x13,x10,x11
800000cc:	00050793          	mv	x15,x10
800000d0:	00059863          	bnez	x11,800000e0 <strnlen+0x18>
800000d4:	0240006f          	j	800000f8 <strnlen+0x30>
800000d8:	00178793          	addi	x15,x15,1
800000dc:	00f68a63          	beq	x13,x15,800000f0 <strnlen+0x28>
800000e0:	0007c703          	lbu	x14,0(x15)
800000e4:	fe071ae3          	bnez	x14,800000d8 <strnlen+0x10>
800000e8:	40a78533          	sub	x10,x15,x10
800000ec:	00008067          	ret
800000f0:	40a68533          	sub	x10,x13,x10
800000f4:	00008067          	ret
800000f8:	00000513          	li	x10,0
800000fc:	00008067          	ret

80000100 <memset>:
80000100:	00c567b3          	or	x15,x10,x12
80000104:	0037f793          	andi	x15,x15,3
80000108:	00c50633          	add	x12,x10,x12
8000010c:	02078063          	beqz	x15,8000012c <memset+0x2c>
80000110:	0ff5f593          	zext.b	x11,x11
80000114:	00050793          	mv	x15,x10
80000118:	04c57063          	bgeu	x10,x12,80000158 <memset+0x58>
8000011c:	00178793          	addi	x15,x15,1
80000120:	feb78fa3          	sb	x11,-1(x15)
80000124:	fef61ce3          	bne	x12,x15,8000011c <memset+0x1c>
80000128:	00008067          	ret
8000012c:	0ff5f593          	zext.b	x11,x11
80000130:	00859713          	slli	x14,x11,0x8
80000134:	00b70733          	add	x14,x14,x11
80000138:	01071793          	slli	x15,x14,0x10
8000013c:	00f70733          	add	x14,x14,x15
80000140:	fec574e3          	bgeu	x10,x12,80000128 <memset+0x28>
80000144:	00050793          	mv	x15,x10
80000148:	00478793          	addi	x15,x15,4
8000014c:	fee7ae23          	sw	x14,-4(x15)
80000150:	fec7ece3          	bltu	x15,x12,80000148 <memset+0x48>
80000154:	00008067          	ret
80000158:	00008067          	ret

8000015c <list_getSize>:
8000015c:	00052503          	lw	x10,0(x10)
80000160:	00008067          	ret

80000164 <list_init>:
80000164:	00052023          	sw	x0,0(x10)
80000168:	00052223          	sw	x0,4(x10)
8000016c:	00008067          	ret

80000170 <list_push>:
80000170:	80001737          	lui	x14,0x80001
80000174:	8a070713          	addi	x14,x14,-1888 # 800008a0 <g_nodeFreeList>
80000178:	00472783          	lw	x15,4(x14)
8000017c:	00052683          	lw	x13,0(x10)
80000180:	0047a603          	lw	x12,4(x15)
80000184:	00168693          	addi	x13,x13,1
80000188:	00c72223          	sw	x12,4(x14)
8000018c:	00452703          	lw	x14,4(x10)
80000190:	00e7a223          	sw	x14,4(x15)
80000194:	00f52223          	sw	x15,4(x10)
80000198:	00b7a023          	sw	x11,0(x15)
8000019c:	00d52023          	sw	x13,0(x10)
800001a0:	00008067          	ret

800001a4 <list_pop>:
800001a4:	00452683          	lw	x13,4(x10)
800001a8:	00050793          	mv	x15,x10
800001ac:	80001737          	lui	x14,0x80001
800001b0:	0046a583          	lw	x11,4(x13)
800001b4:	0006a503          	lw	x10,0(x13)
800001b8:	8a070713          	addi	x14,x14,-1888 # 800008a0 <g_nodeFreeList>
800001bc:	00b7a223          	sw	x11,4(x15)
800001c0:	00472583          	lw	x11,4(x14)
800001c4:	0007a603          	lw	x12,0(x15)
800001c8:	00b6a223          	sw	x11,4(x13)
800001cc:	fff60613          	addi	x12,x12,-1
800001d0:	00d72223          	sw	x13,4(x14)
800001d4:	00c7a023          	sw	x12,0(x15)
800001d8:	00008067          	ret

800001dc <list_clear>:
800001dc:	00052703          	lw	x14,0(x10)
800001e0:	02e05863          	blez	x14,80000210 <list_clear+0x34>
800001e4:	800016b7          	lui	x13,0x80001
800001e8:	8a068693          	addi	x13,x13,-1888 # 800008a0 <g_nodeFreeList>
800001ec:	00452783          	lw	x15,4(x10)
800001f0:	fff70713          	addi	x14,x14,-1
800001f4:	0047a603          	lw	x12,4(x15)
800001f8:	00c52223          	sw	x12,4(x10)
800001fc:	0046a603          	lw	x12,4(x13)
80000200:	00c7a223          	sw	x12,4(x15)
80000204:	00f6a223          	sw	x15,4(x13)
80000208:	fe0712e3          	bnez	x14,800001ec <list_clear+0x10>
8000020c:	00052023          	sw	x0,0(x10)
80000210:	00008067          	ret

80000214 <towers_init>:
80000214:	00b52023          	sw	x11,0(x10)
80000218:	00052223          	sw	x0,4(x10)
8000021c:	00052423          	sw	x0,8(x10)
80000220:	00052623          	sw	x0,12(x10)
80000224:	00052823          	sw	x0,16(x10)
80000228:	00052a23          	sw	x0,20(x10)
8000022c:	00052c23          	sw	x0,24(x10)
80000230:	00052e23          	sw	x0,28(x10)
80000234:	04b05863          	blez	x11,80000284 <towers_init+0x70>
80000238:	80001837          	lui	x16,0x80001
8000023c:	8a080813          	addi	x16,x16,-1888 # 800008a0 <g_nodeFreeList>
80000240:	00482783          	lw	x15,4(x16)
80000244:	00058713          	mv	x14,x11
80000248:	00000693          	li	x13,0
8000024c:	00c0006f          	j	80000258 <towers_init+0x44>
80000250:	00078693          	mv	x13,x15
80000254:	00060793          	mv	x15,x12
80000258:	0047a603          	lw	x12,4(x15)
8000025c:	00e7a023          	sw	x14,0(x15)
80000260:	00d7a223          	sw	x13,4(x15)
80000264:	fff70713          	addi	x14,x14,-1
80000268:	fe0714e3          	bnez	x14,80000250 <towers_init+0x3c>
8000026c:	00c82223          	sw	x12,4(x16)
80000270:	00d7a223          	sw	x13,4(x15)
80000274:	00f52623          	sw	x15,12(x10)
80000278:	00100713          	li	x14,1
8000027c:	00e7a023          	sw	x14,0(x15)
80000280:	00b52423          	sw	x11,8(x10)
80000284:	00008067          	ret

80000288 <towers_clear>:
80000288:	00852703          	lw	x14,8(x10)
8000028c:	04e05263          	blez	x14,800002d0 <towers_clear+0x48>
80000290:	800016b7          	lui	x13,0x80001
80000294:	8a068693          	addi	x13,x13,-1888 # 800008a0 <g_nodeFreeList>
80000298:	00c52783          	lw	x15,12(x10)
8000029c:	0046a603          	lw	x12,4(x13)
800002a0:	00c0006f          	j	800002ac <towers_clear+0x24>
800002a4:	00058793          	mv	x15,x11
800002a8:	00080613          	mv	x12,x16
800002ac:	0047a583          	lw	x11,4(x15)
800002b0:	fff70713          	addi	x14,x14,-1
800002b4:	00c7a223          	sw	x12,4(x15)
800002b8:	00078813          	mv	x16,x15
800002bc:	fe0714e3          	bnez	x14,800002a4 <towers_clear+0x1c>
800002c0:	00b52623          	sw	x11,12(x10)
800002c4:	00c7a223          	sw	x12,4(x15)
800002c8:	00f6a223          	sw	x15,4(x13)
800002cc:	00052423          	sw	x0,8(x10)
800002d0:	01052703          	lw	x14,16(x10)
800002d4:	04e05263          	blez	x14,80000318 <towers_clear+0x90>
800002d8:	800016b7          	lui	x13,0x80001
800002dc:	8a068693          	addi	x13,x13,-1888 # 800008a0 <g_nodeFreeList>
800002e0:	01452783          	lw	x15,20(x10)
800002e4:	0046a603          	lw	x12,4(x13)
800002e8:	00c0006f          	j	800002f4 <towers_clear+0x6c>
800002ec:	00058793          	mv	x15,x11
800002f0:	00080613          	mv	x12,x16
800002f4:	0047a583          	lw	x11,4(x15)
800002f8:	fff70713          	addi	x14,x14,-1
800002fc:	00c7a223          	sw	x12,4(x15)
80000300:	00078813          	mv	x16,x15
80000304:	fe0714e3          	bnez	x14,800002ec <towers_clear+0x64>
80000308:	00b52a23          	sw	x11,20(x10)
8000030c:	00c7a223          	sw	x12,4(x15)
80000310:	00f6a223          	sw	x15,4(x13)
80000314:	00052823          	sw	x0,16(x10)
80000318:	01852703          	lw	x14,24(x10)
8000031c:	02e05a63          	blez	x14,80000350 <towers_clear+0xc8>
80000320:	800016b7          	lui	x13,0x80001
80000324:	8a068693          	addi	x13,x13,-1888 # 800008a0 <g_nodeFreeList>
80000328:	01c52783          	lw	x15,28(x10)
8000032c:	0046a603          	lw	x12,4(x13)
80000330:	0080006f          	j	80000338 <towers_clear+0xb0>
80000334:	00058793          	mv	x15,x11
80000338:	0047a583          	lw	x11,4(x15)
8000033c:	fff70713          	addi	x14,x14,-1
80000340:	00c7a223          	sw	x12,4(x15)
80000344:	00078613          	mv	x12,x15
80000348:	fe0716e3          	bnez	x14,80000334 <towers_clear+0xac>
8000034c:	00f6a223          	sw	x15,4(x13)
80000350:	00052803          	lw	x16,0(x10)
80000354:	00052223          	sw	x0,4(x10)
80000358:	00052423          	sw	x0,8(x10)
8000035c:	00052623          	sw	x0,12(x10)
80000360:	00052823          	sw	x0,16(x10)
80000364:	00052a23          	sw	x0,20(x10)
80000368:	00052c23          	sw	x0,24(x10)
8000036c:	00052e23          	sw	x0,28(x10)
80000370:	05005863          	blez	x16,800003c0 <towers_clear+0x138>
80000374:	800016b7          	lui	x13,0x80001
80000378:	8a068693          	addi	x13,x13,-1888 # 800008a0 <g_nodeFreeList>
8000037c:	0046a783          	lw	x15,4(x13)
80000380:	00080713          	mv	x14,x16
80000384:	00000613          	li	x12,0
80000388:	00c0006f          	j	80000394 <towers_clear+0x10c>
8000038c:	00078613          	mv	x12,x15
80000390:	00058793          	mv	x15,x11
80000394:	0047a583          	lw	x11,4(x15)
80000398:	00e7a023          	sw	x14,0(x15)
8000039c:	00c7a223          	sw	x12,4(x15)
800003a0:	fff70713          	addi	x14,x14,-1
800003a4:	fe0714e3          	bnez	x14,8000038c <towers_clear+0x104>
800003a8:	00b6a223          	sw	x11,4(x13)
800003ac:	00c7a223          	sw	x12,4(x15)
800003b0:	00f52623          	sw	x15,12(x10)
800003b4:	00100713          	li	x14,1
800003b8:	00e7a023          	sw	x14,0(x15)
800003bc:	01052423          	sw	x16,8(x10)
800003c0:	00008067          	ret

800003c4 <towers_solve_h>:
800003c4:	fb010113          	addi	x2,x2,-80 # 800fffb0 <g_nodeFreeList+0xff710>
800003c8:	05212023          	sw	x18,64(x2)
800003cc:	04112623          	sw	x1,76(x2)
800003d0:	03412c23          	sw	x20,56(x2)
800003d4:	03712623          	sw	x23,44(x2)
800003d8:	00b12223          	sw	x11,4(x2)
800003dc:	00100793          	li	x15,1
800003e0:	00c12423          	sw	x12,8(x2)
800003e4:	00e12623          	sw	x14,12(x2)
800003e8:	00050913          	mv	x18,x10
800003ec:	34f58863          	beq	x11,x15,8000073c <towers_solve_h+0x378>
800003f0:	80001a37          	lui	x20,0x80001
800003f4:	03312e23          	sw	x19,60(x2)
800003f8:	04812423          	sw	x8,72(x2)
800003fc:	04912223          	sw	x9,68(x2)
80000400:	03512a23          	sw	x21,52(x2)
80000404:	03612823          	sw	x22,48(x2)
80000408:	03812423          	sw	x24,40(x2)
8000040c:	03912223          	sw	x25,36(x2)
80000410:	03a12023          	sw	x26,32(x2)
80000414:	01b12e23          	sw	x27,28(x2)
80000418:	00068b93          	mv	x23,x13
8000041c:	8a0a0a13          	addi	x20,x20,-1888 # 800008a0 <g_nodeFreeList>
80000420:	00100993          	li	x19,1
80000424:	00412783          	lw	x15,4(x2)
80000428:	fff78793          	addi	x15,x15,-1
8000042c:	00f12223          	sw	x15,4(x2)
80000430:	1d378c63          	beq	x15,x19,80000608 <towers_solve_h+0x244>
80000434:	00412783          	lw	x15,4(x2)
80000438:	00c12d83          	lw	x27,12(x2)
8000043c:	00812b03          	lw	x22,8(x2)
80000440:	00f12023          	sw	x15,0(x2)
80000444:	00012783          	lw	x15,0(x2)
80000448:	fff78793          	addi	x15,x15,-1
8000044c:	00f12023          	sw	x15,0(x2)
80000450:	11378863          	beq	x15,x19,80000560 <towers_solve_h+0x19c>
80000454:	00012a83          	lw	x21,0(x2)
80000458:	000b8493          	mv	x9,x23
8000045c:	000b0d13          	mv	x26,x22
80000460:	fffa8a93          	addi	x21,x21,-1
80000464:	053a8c63          	beq	x21,x19,800004bc <towers_solve_h+0xf8>
80000468:	000d8c13          	mv	x24,x27
8000046c:	000d0413          	mv	x8,x26
80000470:	000a8c93          	mv	x25,x21
80000474:	fffc8c93          	addi	x25,x25,-1
80000478:	000c0713          	mv	x14,x24
8000047c:	00048693          	mv	x13,x9
80000480:	00040613          	mv	x12,x8
80000484:	000c8593          	mv	x11,x25
80000488:	00090513          	mv	x10,x18
8000048c:	f39ff0ef          	jal	800003c4 <towers_solve_h>
80000490:	00048713          	mv	x14,x9
80000494:	000c0693          	mv	x13,x24
80000498:	00040613          	mv	x12,x8
8000049c:	00100593          	li	x11,1
800004a0:	00090513          	mv	x10,x18
800004a4:	f21ff0ef          	jal	800003c4 <towers_solve_h>
800004a8:	00040713          	mv	x14,x8
800004ac:	013c8a63          	beq	x25,x19,800004c0 <towers_solve_h+0xfc>
800004b0:	000c0413          	mv	x8,x24
800004b4:	00070c13          	mv	x24,x14
800004b8:	fbdff06f          	j	80000474 <towers_solve_h+0xb0>
800004bc:	000d0c13          	mv	x24,x26
800004c0:	004c2703          	lw	x14,4(x24)
800004c4:	000c2603          	lw	x12,0(x24)
800004c8:	00492683          	lw	x13,4(x18)
800004cc:	00472503          	lw	x10,4(x14)
800004d0:	00072583          	lw	x11,0(x14)
800004d4:	fff60613          	addi	x12,x12,-1
800004d8:	00ac2223          	sw	x10,4(x24)
800004dc:	004a2503          	lw	x10,4(x20)
800004e0:	00cc2023          	sw	x12,0(x24)
800004e4:	0004a603          	lw	x12,0(x9)
800004e8:	00aa2223          	sw	x10,4(x20)
800004ec:	0044a783          	lw	x15,4(x9)
800004f0:	00160613          	addi	x12,x12,1
800004f4:	00268693          	addi	x13,x13,2
800004f8:	00f72223          	sw	x15,4(x14)
800004fc:	00e4a223          	sw	x14,4(x9)
80000500:	004d2783          	lw	x15,4(x26)
80000504:	00b72023          	sw	x11,0(x14)
80000508:	00c4a023          	sw	x12,0(x9)
8000050c:	0047a583          	lw	x11,4(x15)
80000510:	000d2703          	lw	x14,0(x26)
80000514:	0007a603          	lw	x12,0(x15)
80000518:	00bd2223          	sw	x11,4(x26)
8000051c:	004a2583          	lw	x11,4(x20)
80000520:	fff70713          	addi	x14,x14,-1
80000524:	00ed2023          	sw	x14,0(x26)
80000528:	00ba2223          	sw	x11,4(x20)
8000052c:	004da583          	lw	x11,4(x27)
80000530:	000da703          	lw	x14,0(x27)
80000534:	00b7a223          	sw	x11,4(x15)
80000538:	00fda223          	sw	x15,4(x27)
8000053c:	00c7a023          	sw	x12,0(x15)
80000540:	00170793          	addi	x15,x14,1
80000544:	00fda023          	sw	x15,0(x27)
80000548:	00d92223          	sw	x13,4(x18)
8000054c:	013a8e63          	beq	x21,x19,80000568 <towers_solve_h+0x1a4>
80000550:	000d0793          	mv	x15,x26
80000554:	00048d13          	mv	x26,x9
80000558:	00078493          	mv	x9,x15
8000055c:	f05ff06f          	j	80000460 <towers_solve_h+0x9c>
80000560:	00492683          	lw	x13,4(x18)
80000564:	000b0493          	mv	x9,x22
80000568:	0044a703          	lw	x14,4(x9)
8000056c:	0004a783          	lw	x15,0(x9)
80000570:	00268693          	addi	x13,x13,2
80000574:	00472603          	lw	x12,4(x14)
80000578:	00072583          	lw	x11,0(x14)
8000057c:	fff78793          	addi	x15,x15,-1
80000580:	00c4a223          	sw	x12,4(x9)
80000584:	004a2503          	lw	x10,4(x20)
80000588:	00f4a023          	sw	x15,0(x9)
8000058c:	000da603          	lw	x12,0(x27)
80000590:	00aa2223          	sw	x10,4(x20)
80000594:	004da783          	lw	x15,4(x27)
80000598:	00160613          	addi	x12,x12,1
8000059c:	00f72223          	sw	x15,4(x14)
800005a0:	00eda223          	sw	x14,4(x27)
800005a4:	004b2783          	lw	x15,4(x22)
800005a8:	00b72023          	sw	x11,0(x14)
800005ac:	00cda023          	sw	x12,0(x27)
800005b0:	0047a583          	lw	x11,4(x15)
800005b4:	000b2703          	lw	x14,0(x22)
800005b8:	0007a603          	lw	x12,0(x15)
800005bc:	00bb2223          	sw	x11,4(x22)
800005c0:	004a2583          	lw	x11,4(x20)
800005c4:	fff70713          	addi	x14,x14,-1
800005c8:	00eb2023          	sw	x14,0(x22)
800005cc:	00ba2223          	sw	x11,4(x20)
800005d0:	004ba583          	lw	x11,4(x23)
800005d4:	000ba703          	lw	x14,0(x23)
800005d8:	00b7a223          	sw	x11,4(x15)
800005dc:	00fba223          	sw	x15,4(x23)
800005e0:	00c7a023          	sw	x12,0(x15)
800005e4:	00170793          	addi	x15,x14,1
800005e8:	00fba023          	sw	x15,0(x23)
800005ec:	00012783          	lw	x15,0(x2)
800005f0:	00d92223          	sw	x13,4(x18)
800005f4:	01378e63          	beq	x15,x19,80000610 <towers_solve_h+0x24c>
800005f8:	000b0793          	mv	x15,x22
800005fc:	000d8b13          	mv	x22,x27
80000600:	00078d93          	mv	x27,x15
80000604:	e41ff06f          	j	80000444 <towers_solve_h+0x80>
80000608:	00492683          	lw	x13,4(x18)
8000060c:	00812d83          	lw	x27,8(x2)
80000610:	004da703          	lw	x14,4(x27)
80000614:	000da783          	lw	x15,0(x27)
80000618:	00c12803          	lw	x16,12(x2)
8000061c:	00472603          	lw	x12,4(x14)
80000620:	00072583          	lw	x11,0(x14)
80000624:	fff78793          	addi	x15,x15,-1
80000628:	00cda223          	sw	x12,4(x27)
8000062c:	004a2503          	lw	x10,4(x20)
80000630:	00fda023          	sw	x15,0(x27)
80000634:	000ba603          	lw	x12,0(x23)
80000638:	00aa2223          	sw	x10,4(x20)
8000063c:	004ba783          	lw	x15,4(x23)
80000640:	00812503          	lw	x10,8(x2)
80000644:	00160613          	addi	x12,x12,1
80000648:	00f72223          	sw	x15,4(x14)
8000064c:	00eba223          	sw	x14,4(x23)
80000650:	00452783          	lw	x15,4(x10)
80000654:	00b72023          	sw	x11,0(x14)
80000658:	00cba023          	sw	x12,0(x23)
8000065c:	0047a583          	lw	x11,4(x15)
80000660:	00052703          	lw	x14,0(x10)
80000664:	0007a603          	lw	x12,0(x15)
80000668:	00b52223          	sw	x11,4(x10)
8000066c:	004a2583          	lw	x11,4(x20)
80000670:	fff70713          	addi	x14,x14,-1
80000674:	00e52023          	sw	x14,0(x10)
80000678:	00ba2223          	sw	x11,4(x20)
8000067c:	00482583          	lw	x11,4(x16)
80000680:	00082703          	lw	x14,0(x16)
80000684:	00268693          	addi	x13,x13,2
80000688:	00b7a223          	sw	x11,4(x15)
8000068c:	00f82223          	sw	x15,4(x16)
80000690:	00c7a023          	sw	x12,0(x15)
80000694:	00170793          	addi	x15,x14,1
80000698:	00f82023          	sw	x15,0(x16)
8000069c:	00412783          	lw	x15,4(x2)
800006a0:	00d92223          	sw	x13,4(x18)
800006a4:	01378863          	beq	x15,x19,800006b4 <towers_solve_h+0x2f0>
800006a8:	01712423          	sw	x23,8(x2)
800006ac:	00050b93          	mv	x23,x10
800006b0:	d75ff06f          	j	80000424 <towers_solve_h+0x60>
800006b4:	04812403          	lw	x8,72(x2)
800006b8:	04412483          	lw	x9,68(x2)
800006bc:	03c12983          	lw	x19,60(x2)
800006c0:	03412a83          	lw	x21,52(x2)
800006c4:	03012b03          	lw	x22,48(x2)
800006c8:	02812c03          	lw	x24,40(x2)
800006cc:	02412c83          	lw	x25,36(x2)
800006d0:	02012d03          	lw	x26,32(x2)
800006d4:	01c12d83          	lw	x27,28(x2)
800006d8:	004ba783          	lw	x15,4(x23)
800006dc:	000ba703          	lw	x14,0(x23)
800006e0:	00c12503          	lw	x10,12(x2)
800006e4:	0047a583          	lw	x11,4(x15)
800006e8:	0007a603          	lw	x12,0(x15)
800006ec:	fff70713          	addi	x14,x14,-1
800006f0:	00bba223          	sw	x11,4(x23)
800006f4:	004a2583          	lw	x11,4(x20)
800006f8:	00eba023          	sw	x14,0(x23)
800006fc:	00052703          	lw	x14,0(x10)
80000700:	00ba2223          	sw	x11,4(x20)
80000704:	00452583          	lw	x11,4(x10)
80000708:	04c12083          	lw	x1,76(x2)
8000070c:	00170713          	addi	x14,x14,1
80000710:	00b7a223          	sw	x11,4(x15)
80000714:	00f52223          	sw	x15,4(x10)
80000718:	00c7a023          	sw	x12,0(x15)
8000071c:	00e52023          	sw	x14,0(x10)
80000720:	00168693          	addi	x13,x13,1
80000724:	00d92223          	sw	x13,4(x18)
80000728:	03812a03          	lw	x20,56(x2)
8000072c:	04012903          	lw	x18,64(x2)
80000730:	02c12b83          	lw	x23,44(x2)
80000734:	05010113          	addi	x2,x2,80
80000738:	00008067          	ret
8000073c:	80001a37          	lui	x20,0x80001
80000740:	00452683          	lw	x13,4(x10)
80000744:	00812b83          	lw	x23,8(x2)
80000748:	8a0a0a13          	addi	x20,x20,-1888 # 800008a0 <g_nodeFreeList>
8000074c:	f8dff06f          	j	800006d8 <towers_solve_h+0x314>

80000750 <towers_solve>:
80000750:	00052583          	lw	x11,0(x10)
80000754:	01850713          	addi	x14,x10,24
80000758:	01050693          	addi	x13,x10,16
8000075c:	00850613          	addi	x12,x10,8
80000760:	c65ff06f          	j	800003c4 <towers_solve_h>

80000764 <towers_verify>:
80000764:	00852783          	lw	x15,8(x10)
80000768:	00050613          	mv	x12,x10
8000076c:	04079663          	bnez	x15,800007b8 <towers_verify+0x54>
80000770:	01052503          	lw	x10,16(x10)
80000774:	06051663          	bnez	x10,800007e0 <towers_verify+0x7c>
80000778:	00062583          	lw	x11,0(x12)
8000077c:	01862783          	lw	x15,24(x12)
80000780:	02b79863          	bne	x15,x11,800007b0 <towers_verify+0x4c>
80000784:	01c62783          	lw	x15,28(x12)
80000788:	02078c63          	beqz	x15,800007c0 <towers_verify+0x5c>
8000078c:	00000713          	li	x14,0
80000790:	00c0006f          	j	8000079c <towers_verify+0x38>
80000794:	0047a783          	lw	x15,4(x15)
80000798:	02078463          	beqz	x15,800007c0 <towers_verify+0x5c>
8000079c:	0007a683          	lw	x13,0(x15)
800007a0:	00170713          	addi	x14,x14,1
800007a4:	fed708e3          	beq	x14,x13,80000794 <towers_verify+0x30>
800007a8:	00500513          	li	x10,5
800007ac:	00008067          	ret
800007b0:	00400513          	li	x10,4
800007b4:	00008067          	ret
800007b8:	00200513          	li	x10,2
800007bc:	00008067          	ret
800007c0:	00100793          	li	x15,1
800007c4:	00462703          	lw	x14,4(x12)
800007c8:	00b797b3          	sll	x15,x15,x11
800007cc:	fff78793          	addi	x15,x15,-1
800007d0:	00f71463          	bne	x14,x15,800007d8 <towers_verify+0x74>
800007d4:	00008067          	ret
800007d8:	00600513          	li	x10,6
800007dc:	00008067          	ret
800007e0:	00300513          	li	x10,3
800007e4:	00008067          	ret

800007e8 <main>:
800007e8:	fd010113          	addi	x2,x2,-48
800007ec:	800017b7          	lui	x15,0x80001
800007f0:	80001737          	lui	x14,0x80001
800007f4:	02112623          	sw	x1,44(x2)
800007f8:	86878793          	addi	x15,x15,-1944 # 80000868 <_data_end>
800007fc:	8a070713          	addi	x14,x14,-1888 # 800008a0 <g_nodeFreeList>
80000800:	00700693          	li	x13,7
80000804:	00f72223          	sw	x15,4(x14)
80000808:	00d72023          	sw	x13,0(x14)
8000080c:	06300713          	li	x14,99
80000810:	02e7a823          	sw	x14,48(x15)
80000814:	0207aa23          	sw	x0,52(x15)
80000818:	00000713          	li	x14,0
8000081c:	00878793          	addi	x15,x15,8
80000820:	00600613          	li	x12,6
80000824:	fee7ac23          	sw	x14,-8(x15)
80000828:	fef7ae23          	sw	x15,-4(x15)
8000082c:	00170713          	addi	x14,x14,1
80000830:	00878793          	addi	x15,x15,8
80000834:	fec718e3          	bne	x14,x12,80000824 <main+0x3c>
80000838:	00700593          	li	x11,7
8000083c:	00010513          	mv	x10,x2
80000840:	9d5ff0ef          	jal	80000214 <towers_init>
80000844:	00010513          	mv	x10,x2
80000848:	a41ff0ef          	jal	80000288 <towers_clear>
8000084c:	00010513          	mv	x10,x2
80000850:	f01ff0ef          	jal	80000750 <towers_solve>
80000854:	00010513          	mv	x10,x2
80000858:	f0dff0ef          	jal	80000764 <towers_verify>
8000085c:	02c12083          	lw	x1,44(x2)
80000860:	03010113          	addi	x2,x2,48
80000864:	00008067          	ret
