
elf/vec_add.elf:     file format elf32-littleriscv


Disassembly of section .text:

80000000 <_start>:
80000000:	00000013          	nop
80000004:	00000093          	li	x1,0
80000008:	00000113          	li	x2,0
8000000c:	00000193          	li	x3,0
80000010:	00000213          	li	x4,0
80000014:	00000293          	li	x5,0
80000018:	00000313          	li	x6,0
8000001c:	00000393          	li	x7,0
80000020:	00000413          	li	x8,0
80000024:	00000493          	li	x9,0
80000028:	00000513          	li	x10,0
8000002c:	00000593          	li	x11,0
80000030:	00000613          	li	x12,0
80000034:	00000693          	li	x13,0
80000038:	00000713          	li	x14,0
8000003c:	00000793          	li	x15,0
80000040:	00000813          	li	x16,0
80000044:	00000893          	li	x17,0
80000048:	00000913          	li	x18,0
8000004c:	00000993          	li	x19,0
80000050:	00000a13          	li	x20,0
80000054:	00000a93          	li	x21,0
80000058:	00000b13          	li	x22,0
8000005c:	00000b93          	li	x23,0
80000060:	00000c13          	li	x24,0
80000064:	00000c93          	li	x25,0
80000068:	00000d13          	li	x26,0
8000006c:	00000d93          	li	x27,0
80000070:	00000e13          	li	x28,0
80000074:	00000e93          	li	x29,0
80000078:	00000f13          	li	x30,0
8000007c:	00000f93          	li	x31,0
80000080:	80100137          	lui	x2,0x80100
80000084:	00001517          	auipc	x10,0x1
80000088:	6d350513          	addi	x10,x10,1747 # 80001757 <init_string>
8000008c:	614000ef          	jal	800006a0 <printf>
80000090:	00000297          	auipc	x5,0x0
80000094:	02428293          	addi	x5,x5,36 # 800000b4 <trap_handler>
80000098:	00000313          	li	x6,0
8000009c:	00231313          	slli	x6,x6,0x2
800000a0:	0062e2b3          	or	x5,x5,x6
800000a4:	30529073          	csrw	mtvec,x5
800000a8:	00000297          	auipc	x5,0x0
800000ac:	69828293          	addi	x5,x5,1688 # 80000740 <main>
800000b0:	00028067          	jr	x5

800000b4 <trap_handler>:
800000b4:	fc010113          	addi	x2,x2,-64 # 800fffc0 <__bss_end+0xfe85a>
800000b8:	00112023          	sw	x1,0(x2)
800000bc:	00512223          	sw	x5,4(x2)
800000c0:	00612423          	sw	x6,8(x2)
800000c4:	00712623          	sw	x7,12(x2)
800000c8:	00a12823          	sw	x10,16(x2)
800000cc:	00b12a23          	sw	x11,20(x2)
800000d0:	00c12c23          	sw	x12,24(x2)
800000d4:	00d12e23          	sw	x13,28(x2)
800000d8:	02e12023          	sw	x14,32(x2)
800000dc:	02f12223          	sw	x15,36(x2)
800000e0:	03012423          	sw	x16,40(x2)
800000e4:	03112623          	sw	x17,44(x2)
800000e8:	00001517          	auipc	x10,0x1
800000ec:	66050513          	addi	x10,x10,1632 # 80001748 <trap_string>
800000f0:	5b0000ef          	jal	800006a0 <printf>
800000f4:	342022f3          	csrr	x5,mcause
800000f8:	00b00313          	li	x6,11
800000fc:	00628463          	beq	x5,x6,80000104 <handle_ecall>
80000100:	0280006f          	j	80000128 <handle_other_exception>

80000104 <handle_ecall>:
80000104:	341022f3          	csrr	x5,mepc
80000108:	00428293          	addi	x5,x5,4
8000010c:	34129073          	csrw	mepc,x5
80000110:	00001517          	auipc	x10,0x1
80000114:	62850513          	addi	x10,x10,1576 # 80001738 <_data_start>
80000118:	588000ef          	jal	800006a0 <printf>
8000011c:	0100006f          	j	8000012c <finish_trap>

80000120 <syscall_print_int>:
80000120:	00c0006f          	j	8000012c <finish_trap>

80000124 <handle_other_syscall>:
80000124:	0080006f          	j	8000012c <finish_trap>

80000128 <handle_other_exception>:
80000128:	0040006f          	j	8000012c <finish_trap>

8000012c <finish_trap>:
8000012c:	00012083          	lw	x1,0(x2)
80000130:	00412283          	lw	x5,4(x2)
80000134:	00812303          	lw	x6,8(x2)
80000138:	00c12383          	lw	x7,12(x2)
8000013c:	01012503          	lw	x10,16(x2)
80000140:	01412583          	lw	x11,20(x2)
80000144:	01812603          	lw	x12,24(x2)
80000148:	01c12683          	lw	x13,28(x2)
8000014c:	02012703          	lw	x14,32(x2)
80000150:	02412783          	lw	x15,36(x2)
80000154:	02812803          	lw	x16,40(x2)
80000158:	02c12883          	lw	x17,44(x2)
8000015c:	04010113          	addi	x2,x2,64
80000160:	30200073          	mret

80000164 <putchar>:
80000164:	000807b7          	lui	x15,0x80
80000168:	00a7a023          	sw	x10,0(x15) # 80000 <_start-0x7ff80000>
8000016c:	00000513          	li	x10,0
80000170:	00008067          	ret

80000174 <vprintfmt.constprop.0>:
80000174:	800017b7          	lui	x15,0x80001
80000178:	eb010113          	addi	x2,x2,-336
8000017c:	46878793          	addi	x15,x15,1128 # 80001468 <__umoddi3+0x3ec>
80000180:	14812423          	sw	x8,328(x2)
80000184:	13912223          	sw	x25,292(x2)
80000188:	13a12023          	sw	x26,288(x2)
8000018c:	14112623          	sw	x1,332(x2)
80000190:	14912223          	sw	x9,324(x2)
80000194:	15212023          	sw	x18,320(x2)
80000198:	13512a23          	sw	x21,308(x2)
8000019c:	13612823          	sw	x22,304(x2)
800001a0:	13812423          	sw	x24,296(x2)
800001a4:	11b12e23          	sw	x27,284(x2)
800001a8:	00050413          	mv	x8,x10
800001ac:	00b12423          	sw	x11,8(x2)
800001b0:	02500c93          	li	x25,37
800001b4:	00080d37          	lui	x26,0x80
800001b8:	00f12623          	sw	x15,12(x2)
800001bc:	0100006f          	j	800001cc <vprintfmt.constprop.0+0x58>
800001c0:	04078c63          	beqz	x15,80000218 <vprintfmt.constprop.0+0xa4>
800001c4:	00140413          	addi	x8,x8,1
800001c8:	00fd2023          	sw	x15,0(x26) # 80000 <_start-0x7ff80000>
800001cc:	00044783          	lbu	x15,0(x8)
800001d0:	ff9798e3          	bne	x15,x25,800001c0 <vprintfmt.constprop.0+0x4c>
800001d4:	00144583          	lbu	x11,1(x8)
800001d8:	00140893          	addi	x17,x8,1
800001dc:	00088613          	mv	x12,x17
800001e0:	02000c13          	li	x24,32
800001e4:	fff00693          	li	x13,-1
800001e8:	fff00b13          	li	x22,-1
800001ec:	00000313          	li	x6,0
800001f0:	fdd58793          	addi	x15,x11,-35
800001f4:	0ff7f793          	zext.b	x15,x15
800001f8:	05500713          	li	x14,85
800001fc:	00160413          	addi	x8,x12,1
80000200:	06f76463          	bltu	x14,x15,80000268 <vprintfmt.constprop.0+0xf4>
80000204:	00c12703          	lw	x14,12(x2)
80000208:	00279793          	slli	x15,x15,0x2
8000020c:	00e787b3          	add	x15,x15,x14
80000210:	0007a783          	lw	x15,0(x15)
80000214:	00078067          	jr	x15
80000218:	14c12083          	lw	x1,332(x2)
8000021c:	14812403          	lw	x8,328(x2)
80000220:	14412483          	lw	x9,324(x2)
80000224:	14012903          	lw	x18,320(x2)
80000228:	13412a83          	lw	x21,308(x2)
8000022c:	13012b03          	lw	x22,304(x2)
80000230:	12812c03          	lw	x24,296(x2)
80000234:	12412c83          	lw	x25,292(x2)
80000238:	12012d03          	lw	x26,288(x2)
8000023c:	11c12d83          	lw	x27,284(x2)
80000240:	15010113          	addi	x2,x2,336
80000244:	00008067          	ret
80000248:	00058c13          	mv	x24,x11
8000024c:	00164583          	lbu	x11,1(x12)
80000250:	05500713          	li	x14,85
80000254:	00040613          	mv	x12,x8
80000258:	fdd58793          	addi	x15,x11,-35
8000025c:	0ff7f793          	zext.b	x15,x15
80000260:	00160413          	addi	x8,x12,1
80000264:	faf770e3          	bgeu	x14,x15,80000204 <vprintfmt.constprop.0+0x90>
80000268:	000807b7          	lui	x15,0x80
8000026c:	02500693          	li	x13,37
80000270:	00d7a023          	sw	x13,0(x15) # 80000 <_start-0x7ff80000>
80000274:	00088413          	mv	x8,x17
80000278:	f55ff06f          	j	800001cc <vprintfmt.constprop.0+0x58>
8000027c:	00164503          	lbu	x10,1(x12)
80000280:	00900793          	li	x15,9
80000284:	fd058693          	addi	x13,x11,-48
80000288:	fd050613          	addi	x12,x10,-48
8000028c:	00050593          	mv	x11,x10
80000290:	3ac7e463          	bltu	x15,x12,80000638 <vprintfmt.constprop.0+0x4c4>
80000294:	00040613          	mv	x12,x8
80000298:	00900e13          	li	x28,9
8000029c:	00269793          	slli	x15,x13,0x2
800002a0:	00d787b3          	add	x15,x15,x13
800002a4:	00160613          	addi	x12,x12,1
800002a8:	00179793          	slli	x15,x15,0x1
800002ac:	00a787b3          	add	x15,x15,x10
800002b0:	00064503          	lbu	x10,0(x12)
800002b4:	fd078693          	addi	x13,x15,-48
800002b8:	fd050793          	addi	x15,x10,-48
800002bc:	00050593          	mv	x11,x10
800002c0:	fcfe7ee3          	bgeu	x28,x15,8000029c <vprintfmt.constprop.0+0x128>
800002c4:	f20b56e3          	bgez	x22,800001f0 <vprintfmt.constprop.0+0x7c>
800002c8:	00068b13          	mv	x22,x13
800002cc:	fff00693          	li	x13,-1
800002d0:	f21ff06f          	j	800001f0 <vprintfmt.constprop.0+0x7c>
800002d4:	00164583          	lbu	x11,1(x12)
800002d8:	00040613          	mv	x12,x8
800002dc:	f15ff06f          	j	800001f0 <vprintfmt.constprop.0+0x7c>
800002e0:	000807b7          	lui	x15,0x80
800002e4:	02500693          	li	x13,37
800002e8:	00d7a023          	sw	x13,0(x15) # 80000 <_start-0x7ff80000>
800002ec:	ee1ff06f          	j	800001cc <vprintfmt.constprop.0+0x58>
800002f0:	00812783          	lw	x15,8(x2)
800002f4:	00164583          	lbu	x11,1(x12)
800002f8:	00040613          	mv	x12,x8
800002fc:	0007a683          	lw	x13,0(x15)
80000300:	00478793          	addi	x15,x15,4
80000304:	00f12423          	sw	x15,8(x2)
80000308:	fbdff06f          	j	800002c4 <vprintfmt.constprop.0+0x150>
8000030c:	000807b7          	lui	x15,0x80
80000310:	13312e23          	sw	x19,316(x2)
80000314:	13412c23          	sw	x20,312(x2)
80000318:	03000693          	li	x13,48
8000031c:	00d7a023          	sw	x13,0(x15) # 80000 <_start-0x7ff80000>
80000320:	07800693          	li	x13,120
80000324:	00d7a023          	sw	x13,0(x15)
80000328:	00812783          	lw	x15,8(x2)
8000032c:	01000a93          	li	x21,16
80000330:	00000d93          	li	x27,0
80000334:	00478793          	addi	x15,x15,4
80000338:	00812703          	lw	x14,8(x2)
8000033c:	00000493          	li	x9,0
80000340:	00072903          	lw	x18,0(x14)
80000344:	00f12423          	sw	x15,8(x2)
80000348:	000a8613          	mv	x12,x21
8000034c:	00000693          	li	x13,0
80000350:	00090513          	mv	x10,x18
80000354:	00048593          	mv	x11,x9
80000358:	525000ef          	jal	8000107c <__umoddi3>
8000035c:	00a12823          	sw	x10,16(x2)
80000360:	249d8e63          	beq	x27,x9,800005bc <vprintfmt.constprop.0+0x448>
80000364:	13712623          	sw	x23,300(x2)
80000368:	00100a13          	li	x20,1
8000036c:	01410b93          	addi	x23,x2,20
80000370:	000a8613          	mv	x12,x21
80000374:	00000693          	li	x13,0
80000378:	00090513          	mv	x10,x18
8000037c:	00048593          	mv	x11,x9
80000380:	0cd000ef          	jal	80000c4c <__udivdi3>
80000384:	000a8613          	mv	x12,x21
80000388:	00000693          	li	x13,0
8000038c:	00050913          	mv	x18,x10
80000390:	00058493          	mv	x9,x11
80000394:	4e9000ef          	jal	8000107c <__umoddi3>
80000398:	00aba023          	sw	x10,0(x23)
8000039c:	000a0993          	mv	x19,x20
800003a0:	004b8b93          	addi	x23,x23,4
800003a4:	001a0a13          	addi	x20,x20,1
800003a8:	fc9d94e3          	bne	x27,x9,80000370 <vprintfmt.constprop.0+0x1fc>
800003ac:	fd5972e3          	bgeu	x18,x21,80000370 <vprintfmt.constprop.0+0x1fc>
800003b0:	12c12b83          	lw	x23,300(x2)
800003b4:	fffb0793          	addi	x15,x22,-1
800003b8:	fffa0613          	addi	x12,x20,-1
800003bc:	000806b7          	lui	x13,0x80
800003c0:	016a5863          	bge	x20,x22,800003d0 <vprintfmt.constprop.0+0x25c>
800003c4:	0186a023          	sw	x24,0(x13) # 80000 <_start-0x7ff80000>
800003c8:	fff78793          	addi	x15,x15,-1
800003cc:	fec79ce3          	bne	x15,x12,800003c4 <vprintfmt.constprop.0+0x250>
800003d0:	01010613          	addi	x12,x2,16
800003d4:	00299993          	slli	x19,x19,0x2
800003d8:	013609b3          	add	x19,x12,x19
800003dc:	00900513          	li	x10,9
800003e0:	000805b7          	lui	x11,0x80
800003e4:	0080006f          	j	800003ec <vprintfmt.constprop.0+0x278>
800003e8:	00078993          	mv	x19,x15
800003ec:	0009a783          	lw	x15,0(x19)
800003f0:	03000693          	li	x13,48
800003f4:	00f57463          	bgeu	x10,x15,800003fc <vprintfmt.constprop.0+0x288>
800003f8:	05700693          	li	x13,87
800003fc:	00d787b3          	add	x15,x15,x13
80000400:	00f5a023          	sw	x15,0(x11) # 80000 <_start-0x7ff80000>
80000404:	ffc98793          	addi	x15,x19,-4
80000408:	ff3610e3          	bne	x12,x19,800003e8 <vprintfmt.constprop.0+0x274>
8000040c:	13c12983          	lw	x19,316(x2)
80000410:	13812a03          	lw	x20,312(x2)
80000414:	db9ff06f          	j	800001cc <vprintfmt.constprop.0+0x58>
80000418:	13312e23          	sw	x19,316(x2)
8000041c:	13412c23          	sw	x20,312(x2)
80000420:	00100793          	li	x15,1
80000424:	1a67c463          	blt	x15,x6,800005cc <vprintfmt.constprop.0+0x458>
80000428:	00812783          	lw	x15,8(x2)
8000042c:	0007a903          	lw	x18,0(x15)
80000430:	00478793          	addi	x15,x15,4
80000434:	00f12423          	sw	x15,8(x2)
80000438:	41f95493          	srai	x9,x18,0x1f
8000043c:	0204d063          	bgez	x9,8000045c <vprintfmt.constprop.0+0x2e8>
80000440:	012037b3          	snez	x15,x18
80000444:	409004b3          	neg	x9,x9
80000448:	000806b7          	lui	x13,0x80
8000044c:	02d00613          	li	x12,45
80000450:	00c6a023          	sw	x12,0(x13) # 80000 <_start-0x7ff80000>
80000454:	41200933          	neg	x18,x18
80000458:	40f484b3          	sub	x9,x9,x15
8000045c:	00a00a93          	li	x21,10
80000460:	00000d93          	li	x27,0
80000464:	ee5ff06f          	j	80000348 <vprintfmt.constprop.0+0x1d4>
80000468:	00164583          	lbu	x11,1(x12)
8000046c:	00130313          	addi	x6,x6,1
80000470:	00040613          	mv	x12,x8
80000474:	d7dff06f          	j	800001f0 <vprintfmt.constprop.0+0x7c>
80000478:	13312e23          	sw	x19,316(x2)
8000047c:	13412c23          	sw	x20,312(x2)
80000480:	01000a93          	li	x21,16
80000484:	00000d93          	li	x27,0
80000488:	00100793          	li	x15,1
8000048c:	1067c463          	blt	x15,x6,80000594 <vprintfmt.constprop.0+0x420>
80000490:	00812783          	lw	x15,8(x2)
80000494:	00478793          	addi	x15,x15,4
80000498:	ea1ff06f          	j	80000338 <vprintfmt.constprop.0+0x1c4>
8000049c:	00812703          	lw	x14,8(x2)
800004a0:	13712623          	sw	x23,300(x2)
800004a4:	00072783          	lw	x15,0(x14)
800004a8:	00470b93          	addi	x23,x14,4
800004ac:	16078863          	beqz	x15,8000061c <vprintfmt.constprop.0+0x4a8>
800004b0:	05605e63          	blez	x22,8000050c <vprintfmt.constprop.0+0x398>
800004b4:	02d00613          	li	x12,45
800004b8:	00cc1c63          	bne	x24,x12,800004d0 <vprintfmt.constprop.0+0x35c>
800004bc:	0007c603          	lbu	x12,0(x15)
800004c0:	04061a63          	bnez	x12,80000514 <vprintfmt.constprop.0+0x3a0>
800004c4:	07c0006f          	j	80000540 <vprintfmt.constprop.0+0x3cc>
800004c8:	800017b7          	lui	x15,0x80001
800004cc:	46078793          	addi	x15,x15,1120 # 80001460 <__umoddi3+0x3e4>
800004d0:	00078613          	mv	x12,x15
800004d4:	00d78533          	add	x10,x15,x13
800004d8:	00069863          	bnez	x13,800004e8 <vprintfmt.constprop.0+0x374>
800004dc:	0200006f          	j	800004fc <vprintfmt.constprop.0+0x388>
800004e0:	00160613          	addi	x12,x12,1
800004e4:	00a60663          	beq	x12,x10,800004f0 <vprintfmt.constprop.0+0x37c>
800004e8:	00064583          	lbu	x11,0(x12)
800004ec:	fe059ae3          	bnez	x11,800004e0 <vprintfmt.constprop.0+0x36c>
800004f0:	40f60633          	sub	x12,x12,x15
800004f4:	40cb0b33          	sub	x22,x22,x12
800004f8:	01605a63          	blez	x22,8000050c <vprintfmt.constprop.0+0x398>
800004fc:	00080637          	lui	x12,0x80
80000500:	01862023          	sw	x24,0(x12) # 80000 <_start-0x7ff80000>
80000504:	fffb0b13          	addi	x22,x22,-1
80000508:	fe0b1ce3          	bnez	x22,80000500 <vprintfmt.constprop.0+0x38c>
8000050c:	0007c603          	lbu	x12,0(x15)
80000510:	04060263          	beqz	x12,80000554 <vprintfmt.constprop.0+0x3e0>
80000514:	fff00513          	li	x10,-1
80000518:	000805b7          	lui	x11,0x80
8000051c:	0006c663          	bltz	x13,80000528 <vprintfmt.constprop.0+0x3b4>
80000520:	fff68693          	addi	x13,x13,-1
80000524:	00a68c63          	beq	x13,x10,8000053c <vprintfmt.constprop.0+0x3c8>
80000528:	00c5a023          	sw	x12,0(x11) # 80000 <_start-0x7ff80000>
8000052c:	0017c603          	lbu	x12,1(x15)
80000530:	fffb0b13          	addi	x22,x22,-1
80000534:	00178793          	addi	x15,x15,1
80000538:	fe0612e3          	bnez	x12,8000051c <vprintfmt.constprop.0+0x3a8>
8000053c:	01605c63          	blez	x22,80000554 <vprintfmt.constprop.0+0x3e0>
80000540:	000806b7          	lui	x13,0x80
80000544:	02000793          	li	x15,32
80000548:	00f6a023          	sw	x15,0(x13) # 80000 <_start-0x7ff80000>
8000054c:	fffb0b13          	addi	x22,x22,-1
80000550:	fe0b1ce3          	bnez	x22,80000548 <vprintfmt.constprop.0+0x3d4>
80000554:	01712423          	sw	x23,8(x2)
80000558:	12c12b83          	lw	x23,300(x2)
8000055c:	c71ff06f          	j	800001cc <vprintfmt.constprop.0+0x58>
80000560:	fffb4793          	not	x15,x22
80000564:	41f7d793          	srai	x15,x15,0x1f
80000568:	00164583          	lbu	x11,1(x12)
8000056c:	00fb7b33          	and	x22,x22,x15
80000570:	00040613          	mv	x12,x8
80000574:	c7dff06f          	j	800001f0 <vprintfmt.constprop.0+0x7c>
80000578:	00812783          	lw	x15,8(x2)
8000057c:	0007a683          	lw	x13,0(x15)
80000580:	00478793          	addi	x15,x15,4
80000584:	00f12423          	sw	x15,8(x2)
80000588:	000807b7          	lui	x15,0x80
8000058c:	00d7a023          	sw	x13,0(x15) # 80000 <_start-0x7ff80000>
80000590:	c3dff06f          	j	800001cc <vprintfmt.constprop.0+0x58>
80000594:	00812783          	lw	x15,8(x2)
80000598:	13712623          	sw	x23,300(x2)
8000059c:	00778b93          	addi	x23,x15,7
800005a0:	ff8bfb93          	andi	x23,x23,-8
800005a4:	008b8793          	addi	x15,x23,8
800005a8:	000ba903          	lw	x18,0(x23)
800005ac:	004ba483          	lw	x9,4(x23)
800005b0:	00f12423          	sw	x15,8(x2)
800005b4:	12c12b83          	lw	x23,300(x2)
800005b8:	d91ff06f          	j	80000348 <vprintfmt.constprop.0+0x1d4>
800005bc:	db5974e3          	bgeu	x18,x21,80000364 <vprintfmt.constprop.0+0x1f0>
800005c0:	00000993          	li	x19,0
800005c4:	00100a13          	li	x20,1
800005c8:	dedff06f          	j	800003b4 <vprintfmt.constprop.0+0x240>
800005cc:	00812783          	lw	x15,8(x2)
800005d0:	13712623          	sw	x23,300(x2)
800005d4:	00778b93          	addi	x23,x15,7
800005d8:	ff8bfb93          	andi	x23,x23,-8
800005dc:	008b8793          	addi	x15,x23,8
800005e0:	000ba903          	lw	x18,0(x23)
800005e4:	004ba483          	lw	x9,4(x23)
800005e8:	00f12423          	sw	x15,8(x2)
800005ec:	12c12b83          	lw	x23,300(x2)
800005f0:	e4dff06f          	j	8000043c <vprintfmt.constprop.0+0x2c8>
800005f4:	13312e23          	sw	x19,316(x2)
800005f8:	13412c23          	sw	x20,312(x2)
800005fc:	00a00a93          	li	x21,10
80000600:	00000d93          	li	x27,0
80000604:	e85ff06f          	j	80000488 <vprintfmt.constprop.0+0x314>
80000608:	13312e23          	sw	x19,316(x2)
8000060c:	13412c23          	sw	x20,312(x2)
80000610:	00800a93          	li	x21,8
80000614:	00000d93          	li	x27,0
80000618:	e71ff06f          	j	80000488 <vprintfmt.constprop.0+0x314>
8000061c:	01605663          	blez	x22,80000628 <vprintfmt.constprop.0+0x4b4>
80000620:	02d00793          	li	x15,45
80000624:	eafc12e3          	bne	x24,x15,800004c8 <vprintfmt.constprop.0+0x354>
80000628:	800017b7          	lui	x15,0x80001
8000062c:	46078793          	addi	x15,x15,1120 # 80001460 <__umoddi3+0x3e4>
80000630:	02800613          	li	x12,40
80000634:	ee1ff06f          	j	80000514 <vprintfmt.constprop.0+0x3a0>
80000638:	00040613          	mv	x12,x8
8000063c:	c89ff06f          	j	800002c4 <vprintfmt.constprop.0+0x150>

80000640 <strlen>:
80000640:	00054783          	lbu	x15,0(x10)
80000644:	00078e63          	beqz	x15,80000660 <strlen+0x20>
80000648:	00050793          	mv	x15,x10
8000064c:	0017c703          	lbu	x14,1(x15)
80000650:	00178793          	addi	x15,x15,1
80000654:	fe071ce3          	bnez	x14,8000064c <strlen+0xc>
80000658:	40a78533          	sub	x10,x15,x10
8000065c:	00008067          	ret
80000660:	00000513          	li	x10,0
80000664:	00008067          	ret

80000668 <strnlen>:
80000668:	00b506b3          	add	x13,x10,x11
8000066c:	00050793          	mv	x15,x10
80000670:	00059863          	bnez	x11,80000680 <strnlen+0x18>
80000674:	0240006f          	j	80000698 <strnlen+0x30>
80000678:	00178793          	addi	x15,x15,1
8000067c:	00f68a63          	beq	x13,x15,80000690 <strnlen+0x28>
80000680:	0007c703          	lbu	x14,0(x15)
80000684:	fe071ae3          	bnez	x14,80000678 <strnlen+0x10>
80000688:	40a78533          	sub	x10,x15,x10
8000068c:	00008067          	ret
80000690:	40a68533          	sub	x10,x13,x10
80000694:	00008067          	ret
80000698:	00000513          	li	x10,0
8000069c:	00008067          	ret

800006a0 <printf>:
800006a0:	fc010113          	addi	x2,x2,-64
800006a4:	02410313          	addi	x6,x2,36
800006a8:	02b12223          	sw	x11,36(x2)
800006ac:	00030593          	mv	x11,x6
800006b0:	00112e23          	sw	x1,28(x2)
800006b4:	02c12423          	sw	x12,40(x2)
800006b8:	02d12623          	sw	x13,44(x2)
800006bc:	02e12823          	sw	x14,48(x2)
800006c0:	02f12a23          	sw	x15,52(x2)
800006c4:	03012c23          	sw	x16,56(x2)
800006c8:	03112e23          	sw	x17,60(x2)
800006cc:	00612623          	sw	x6,12(x2)
800006d0:	aa5ff0ef          	jal	80000174 <vprintfmt.constprop.0>
800006d4:	01c12083          	lw	x1,28(x2)
800006d8:	00000513          	li	x10,0
800006dc:	04010113          	addi	x2,x2,64
800006e0:	00008067          	ret

800006e4 <memset>:
800006e4:	00c567b3          	or	x15,x10,x12
800006e8:	0037f793          	andi	x15,x15,3
800006ec:	00c50633          	add	x12,x10,x12
800006f0:	02078063          	beqz	x15,80000710 <memset+0x2c>
800006f4:	0ff5f593          	zext.b	x11,x11
800006f8:	00050793          	mv	x15,x10
800006fc:	04c57063          	bgeu	x10,x12,8000073c <memset+0x58>
80000700:	00178793          	addi	x15,x15,1
80000704:	feb78fa3          	sb	x11,-1(x15)
80000708:	fef61ce3          	bne	x12,x15,80000700 <memset+0x1c>
8000070c:	00008067          	ret
80000710:	0ff5f593          	zext.b	x11,x11
80000714:	00859713          	slli	x14,x11,0x8
80000718:	00b70733          	add	x14,x14,x11
8000071c:	01071793          	slli	x15,x14,0x10
80000720:	00f70733          	add	x14,x14,x15
80000724:	fec574e3          	bgeu	x10,x12,8000070c <memset+0x28>
80000728:	00050793          	mv	x15,x10
8000072c:	00478793          	addi	x15,x15,4
80000730:	fee7ae23          	sw	x14,-4(x15)
80000734:	fec7ece3          	bltu	x15,x12,8000072c <memset+0x48>
80000738:	00008067          	ret
8000073c:	00008067          	ret

80000740 <main>:
80000740:	800017b7          	lui	x15,0x80001
80000744:	5c078793          	addi	x15,x15,1472 # 800015c0 <__umoddi3+0x544>
80000748:	0147a503          	lw	x10,20(x15)
8000074c:	01c7a603          	lw	x12,28(x15)
80000750:	0007ae83          	lw	x29,0(x15)
80000754:	0047ae03          	lw	x28,4(x15)
80000758:	0087a303          	lw	x6,8(x15)
8000075c:	00c7a883          	lw	x17,12(x15)
80000760:	0107a803          	lw	x16,16(x15)
80000764:	0187a583          	lw	x11,24(x15)
80000768:	0207a703          	lw	x14,32(x15)
8000076c:	0247a783          	lw	x15,36(x15)
80000770:	fc010113          	addi	x2,x2,-64
80000774:	01810693          	addi	x13,x2,24
80000778:	00a12c23          	sw	x10,24(x2)
8000077c:	02c12023          	sw	x12,32(x2)
80000780:	02f12423          	sw	x15,40(x2)
80000784:	01d12223          	sw	x29,4(x2)
80000788:	01c12423          	sw	x28,8(x2)
8000078c:	00612623          	sw	x6,12(x2)
80000790:	01112823          	sw	x17,16(x2)
80000794:	01012a23          	sw	x16,20(x2)
80000798:	00b12e23          	sw	x11,28(x2)
8000079c:	02e12223          	sw	x14,36(x2)
800007a0:	02012623          	sw	x0,44(x2)
800007a4:	02012823          	sw	x0,48(x2)
800007a8:	02012a23          	sw	x0,52(x2)
800007ac:	02012c23          	sw	x0,56(x2)
800007b0:	02012e23          	sw	x0,60(x2)
800007b4:	00410793          	addi	x15,x2,4
800007b8:	02c10613          	addi	x12,x2,44
800007bc:	00068513          	mv	x10,x13
800007c0:	0007a703          	lw	x14,0(x15)
800007c4:	0006a583          	lw	x11,0(x13)
800007c8:	00478793          	addi	x15,x15,4
800007cc:	00468693          	addi	x13,x13,4
800007d0:	00b70733          	add	x14,x14,x11
800007d4:	00e62023          	sw	x14,0(x12)
800007d8:	00460613          	addi	x12,x12,4
800007dc:	fea792e3          	bne	x15,x10,800007c0 <main+0x80>
800007e0:	02c12703          	lw	x14,44(x2)
800007e4:	000807b7          	lui	x15,0x80
800007e8:	03070713          	addi	x14,x14,48
800007ec:	00e7a023          	sw	x14,0(x15) # 80000 <_start-0x7ff80000>
800007f0:	03012703          	lw	x14,48(x2)
800007f4:	03070713          	addi	x14,x14,48
800007f8:	00e7a023          	sw	x14,0(x15)
800007fc:	03412703          	lw	x14,52(x2)
80000800:	03070713          	addi	x14,x14,48
80000804:	00e7a023          	sw	x14,0(x15)
80000808:	03812703          	lw	x14,56(x2)
8000080c:	03070713          	addi	x14,x14,48
80000810:	00e7a023          	sw	x14,0(x15)
80000814:	03c12703          	lw	x14,60(x2)
80000818:	03070713          	addi	x14,x14,48
8000081c:	00e7a023          	sw	x14,0(x15)
80000820:	0000006f          	j	80000820 <main+0xe0>

80000824 <__moddi3>:
80000824:	00058e13          	mv	x28,x11
80000828:	00000813          	li	x16,0
8000082c:	0005dc63          	bgez	x11,80000844 <__moddi3+0x20>
80000830:	00a037b3          	snez	x15,x10
80000834:	40b00e33          	neg	x28,x11
80000838:	40fe0e33          	sub	x28,x28,x15
8000083c:	40a00533          	neg	x10,x10
80000840:	fff00813          	li	x16,-1
80000844:	0006da63          	bgez	x13,80000858 <__moddi3+0x34>
80000848:	00c037b3          	snez	x15,x12
8000084c:	40d006b3          	neg	x13,x13
80000850:	40f686b3          	sub	x13,x13,x15
80000854:	40c00633          	neg	x12,x12
80000858:	00060893          	mv	x17,x12
8000085c:	00050793          	mv	x15,x10
80000860:	000e0593          	mv	x11,x28
80000864:	22069063          	bnez	x13,80000a84 <__moddi3+0x260>
80000868:	80001737          	lui	x14,0x80001
8000086c:	5e870713          	addi	x14,x14,1512 # 800015e8 <__clz_tab>
80000870:	0ece7663          	bgeu	x28,x12,8000095c <__moddi3+0x138>
80000874:	000106b7          	lui	x13,0x10
80000878:	0cd67863          	bgeu	x12,x13,80000948 <__moddi3+0x124>
8000087c:	10063693          	sltiu	x13,x12,256
80000880:	0016b693          	seqz	x13,x13
80000884:	00369693          	slli	x13,x13,0x3
80000888:	00d65333          	srl	x6,x12,x13
8000088c:	00670733          	add	x14,x14,x6
80000890:	00074703          	lbu	x14,0(x14)
80000894:	00d70733          	add	x14,x14,x13
80000898:	02000693          	li	x13,32
8000089c:	40e68333          	sub	x6,x13,x14
800008a0:	00e68c63          	beq	x13,x14,800008b8 <__moddi3+0x94>
800008a4:	006e15b3          	sll	x11,x28,x6
800008a8:	00e55733          	srl	x14,x10,x14
800008ac:	006618b3          	sll	x17,x12,x6
800008b0:	00b765b3          	or	x11,x14,x11
800008b4:	006517b3          	sll	x15,x10,x6
800008b8:	0108d613          	srli	x12,x17,0x10
800008bc:	02c5d6b3          	divu	x13,x11,x12
800008c0:	01089513          	slli	x10,x17,0x10
800008c4:	01055513          	srli	x10,x10,0x10
800008c8:	0107d713          	srli	x14,x15,0x10
800008cc:	02c5f5b3          	remu	x11,x11,x12
800008d0:	02a686b3          	mul	x13,x13,x10
800008d4:	01059593          	slli	x11,x11,0x10
800008d8:	00b76733          	or	x14,x14,x11
800008dc:	00d77a63          	bgeu	x14,x13,800008f0 <__moddi3+0xcc>
800008e0:	00e88733          	add	x14,x17,x14
800008e4:	01176663          	bltu	x14,x17,800008f0 <__moddi3+0xcc>
800008e8:	00d77463          	bgeu	x14,x13,800008f0 <__moddi3+0xcc>
800008ec:	01170733          	add	x14,x14,x17
800008f0:	40d70733          	sub	x14,x14,x13
800008f4:	02c756b3          	divu	x13,x14,x12
800008f8:	02c77733          	remu	x14,x14,x12
800008fc:	02a686b3          	mul	x13,x13,x10
80000900:	01079793          	slli	x15,x15,0x10
80000904:	01071713          	slli	x14,x14,0x10
80000908:	0107d793          	srli	x15,x15,0x10
8000090c:	00e7e7b3          	or	x15,x15,x14
80000910:	00d7fa63          	bgeu	x15,x13,80000924 <__moddi3+0x100>
80000914:	00f887b3          	add	x15,x17,x15
80000918:	0117e663          	bltu	x15,x17,80000924 <__moddi3+0x100>
8000091c:	00d7f463          	bgeu	x15,x13,80000924 <__moddi3+0x100>
80000920:	011787b3          	add	x15,x15,x17
80000924:	40d787b3          	sub	x15,x15,x13
80000928:	0067d533          	srl	x10,x15,x6
8000092c:	00000593          	li	x11,0
80000930:	00080a63          	beqz	x16,80000944 <__moddi3+0x120>
80000934:	00a037b3          	snez	x15,x10
80000938:	40b005b3          	neg	x11,x11
8000093c:	40f585b3          	sub	x11,x11,x15
80000940:	40a00533          	neg	x10,x10
80000944:	00008067          	ret
80000948:	01000337          	lui	x6,0x1000
8000094c:	01800693          	li	x13,24
80000950:	f2667ce3          	bgeu	x12,x6,80000888 <__moddi3+0x64>
80000954:	01000693          	li	x13,16
80000958:	f31ff06f          	j	80000888 <__moddi3+0x64>
8000095c:	00000693          	li	x13,0
80000960:	00060c63          	beqz	x12,80000978 <__moddi3+0x154>
80000964:	000106b7          	lui	x13,0x10
80000968:	06d67e63          	bgeu	x12,x13,800009e4 <__moddi3+0x1c0>
8000096c:	10063693          	sltiu	x13,x12,256
80000970:	0016b693          	seqz	x13,x13
80000974:	00369693          	slli	x13,x13,0x3
80000978:	00d655b3          	srl	x11,x12,x13
8000097c:	00b70733          	add	x14,x14,x11
80000980:	00074703          	lbu	x14,0(x14)
80000984:	00d70733          	add	x14,x14,x13
80000988:	02000693          	li	x13,32
8000098c:	40e68333          	sub	x6,x13,x14
80000990:	06e69463          	bne	x13,x14,800009f8 <__moddi3+0x1d4>
80000994:	40ce0733          	sub	x14,x28,x12
80000998:	0108d593          	srli	x11,x17,0x10
8000099c:	02b75633          	divu	x12,x14,x11
800009a0:	01089513          	slli	x10,x17,0x10
800009a4:	01055513          	srli	x10,x10,0x10
800009a8:	0107d693          	srli	x13,x15,0x10
800009ac:	02b77733          	remu	x14,x14,x11
800009b0:	02a60633          	mul	x12,x12,x10
800009b4:	01071713          	slli	x14,x14,0x10
800009b8:	00e6e733          	or	x14,x13,x14
800009bc:	00c77a63          	bgeu	x14,x12,800009d0 <__moddi3+0x1ac>
800009c0:	00e88733          	add	x14,x17,x14
800009c4:	01176663          	bltu	x14,x17,800009d0 <__moddi3+0x1ac>
800009c8:	00c77463          	bgeu	x14,x12,800009d0 <__moddi3+0x1ac>
800009cc:	01170733          	add	x14,x14,x17
800009d0:	40c70733          	sub	x14,x14,x12
800009d4:	02b756b3          	divu	x13,x14,x11
800009d8:	02b77733          	remu	x14,x14,x11
800009dc:	02a686b3          	mul	x13,x13,x10
800009e0:	f21ff06f          	j	80000900 <__moddi3+0xdc>
800009e4:	010005b7          	lui	x11,0x1000
800009e8:	01800693          	li	x13,24
800009ec:	f8b676e3          	bgeu	x12,x11,80000978 <__moddi3+0x154>
800009f0:	01000693          	li	x13,16
800009f4:	f85ff06f          	j	80000978 <__moddi3+0x154>
800009f8:	006618b3          	sll	x17,x12,x6
800009fc:	00ee56b3          	srl	x13,x28,x14
80000a00:	006517b3          	sll	x15,x10,x6
80000a04:	00e55733          	srl	x14,x10,x14
80000a08:	0108d513          	srli	x10,x17,0x10
80000a0c:	02a6d5b3          	divu	x11,x13,x10
80000a10:	006e1e33          	sll	x28,x28,x6
80000a14:	01c76733          	or	x14,x14,x28
80000a18:	01089e13          	slli	x28,x17,0x10
80000a1c:	010e5e13          	srli	x28,x28,0x10
80000a20:	02a6f6b3          	remu	x13,x13,x10
80000a24:	03c585b3          	mul	x11,x11,x28
80000a28:	01069613          	slli	x12,x13,0x10
80000a2c:	01075693          	srli	x13,x14,0x10
80000a30:	00c6e6b3          	or	x13,x13,x12
80000a34:	00b6fa63          	bgeu	x13,x11,80000a48 <__moddi3+0x224>
80000a38:	00d886b3          	add	x13,x17,x13
80000a3c:	0116e663          	bltu	x13,x17,80000a48 <__moddi3+0x224>
80000a40:	00b6f463          	bgeu	x13,x11,80000a48 <__moddi3+0x224>
80000a44:	011686b3          	add	x13,x13,x17
80000a48:	40b686b3          	sub	x13,x13,x11
80000a4c:	02a6d633          	divu	x12,x13,x10
80000a50:	01071713          	slli	x14,x14,0x10
80000a54:	01075713          	srli	x14,x14,0x10
80000a58:	02a6f6b3          	remu	x13,x13,x10
80000a5c:	03c60633          	mul	x12,x12,x28
80000a60:	01069693          	slli	x13,x13,0x10
80000a64:	00d76733          	or	x14,x14,x13
80000a68:	00c77a63          	bgeu	x14,x12,80000a7c <__moddi3+0x258>
80000a6c:	00e88733          	add	x14,x17,x14
80000a70:	01176663          	bltu	x14,x17,80000a7c <__moddi3+0x258>
80000a74:	00c77463          	bgeu	x14,x12,80000a7c <__moddi3+0x258>
80000a78:	01170733          	add	x14,x14,x17
80000a7c:	40c70733          	sub	x14,x14,x12
80000a80:	f19ff06f          	j	80000998 <__moddi3+0x174>
80000a84:	eade66e3          	bltu	x28,x13,80000930 <__moddi3+0x10c>
80000a88:	00010737          	lui	x14,0x10
80000a8c:	04e6fc63          	bgeu	x13,x14,80000ae4 <__moddi3+0x2c0>
80000a90:	1006b713          	sltiu	x14,x13,256
80000a94:	00173713          	seqz	x14,x14
80000a98:	00371713          	slli	x14,x14,0x3
80000a9c:	800018b7          	lui	x17,0x80001
80000aa0:	00e6d333          	srl	x6,x13,x14
80000aa4:	5e888893          	addi	x17,x17,1512 # 800015e8 <__clz_tab>
80000aa8:	006888b3          	add	x17,x17,x6
80000aac:	0008c883          	lbu	x17,0(x17)
80000ab0:	02000313          	li	x6,32
80000ab4:	00e888b3          	add	x17,x17,x14
80000ab8:	41130733          	sub	x14,x6,x17
80000abc:	03131e63          	bne	x6,x17,80000af8 <__moddi3+0x2d4>
80000ac0:	01c6e463          	bltu	x13,x28,80000ac8 <__moddi3+0x2a4>
80000ac4:	00c56c63          	bltu	x10,x12,80000adc <__moddi3+0x2b8>
80000ac8:	40c50633          	sub	x12,x10,x12
80000acc:	40de06b3          	sub	x13,x28,x13
80000ad0:	00c535b3          	sltu	x11,x10,x12
80000ad4:	00060793          	mv	x15,x12
80000ad8:	40b685b3          	sub	x11,x13,x11
80000adc:	00078513          	mv	x10,x15
80000ae0:	e51ff06f          	j	80000930 <__moddi3+0x10c>
80000ae4:	010008b7          	lui	x17,0x1000
80000ae8:	01800713          	li	x14,24
80000aec:	fb16f8e3          	bgeu	x13,x17,80000a9c <__moddi3+0x278>
80000af0:	01000713          	li	x14,16
80000af4:	fa9ff06f          	j	80000a9c <__moddi3+0x278>
80000af8:	00e696b3          	sll	x13,x13,x14
80000afc:	01165333          	srl	x6,x12,x17
80000b00:	00d36333          	or	x6,x6,x13
80000b04:	011e57b3          	srl	x15,x28,x17
80000b08:	01035e93          	srli	x29,x6,0x10
80000b0c:	03d7dfb3          	divu	x31,x15,x29
80000b10:	00ee1e33          	sll	x28,x28,x14
80000b14:	011555b3          	srl	x11,x10,x17
80000b18:	01c5e5b3          	or	x11,x11,x28
80000b1c:	01031e13          	slli	x28,x6,0x10
80000b20:	010e5e13          	srli	x28,x28,0x10
80000b24:	00e61633          	sll	x12,x12,x14
80000b28:	00e51533          	sll	x10,x10,x14
80000b2c:	03d7f7b3          	remu	x15,x15,x29
80000b30:	03fe0f33          	mul	x30,x28,x31
80000b34:	01079693          	slli	x13,x15,0x10
80000b38:	0105d793          	srli	x15,x11,0x10
80000b3c:	00d7e7b3          	or	x15,x15,x13
80000b40:	000f8693          	mv	x13,x31
80000b44:	01e7fe63          	bgeu	x15,x30,80000b60 <__moddi3+0x33c>
80000b48:	00f307b3          	add	x15,x6,x15
80000b4c:	ffff8693          	addi	x13,x31,-1
80000b50:	0067e863          	bltu	x15,x6,80000b60 <__moddi3+0x33c>
80000b54:	01e7f663          	bgeu	x15,x30,80000b60 <__moddi3+0x33c>
80000b58:	ffef8693          	addi	x13,x31,-2
80000b5c:	006787b3          	add	x15,x15,x6
80000b60:	41e787b3          	sub	x15,x15,x30
80000b64:	03d7df33          	divu	x30,x15,x29
80000b68:	01059593          	slli	x11,x11,0x10
80000b6c:	0105d593          	srli	x11,x11,0x10
80000b70:	03d7f7b3          	remu	x15,x15,x29
80000b74:	03ee0e33          	mul	x28,x28,x30
80000b78:	01079793          	slli	x15,x15,0x10
80000b7c:	00f5e5b3          	or	x11,x11,x15
80000b80:	000f0793          	mv	x15,x30
80000b84:	01c5fe63          	bgeu	x11,x28,80000ba0 <__moddi3+0x37c>
80000b88:	00b305b3          	add	x11,x6,x11
80000b8c:	ffff0793          	addi	x15,x30,-1
80000b90:	0065e863          	bltu	x11,x6,80000ba0 <__moddi3+0x37c>
80000b94:	01c5f663          	bgeu	x11,x28,80000ba0 <__moddi3+0x37c>
80000b98:	ffef0793          	addi	x15,x30,-2
80000b9c:	006585b3          	add	x11,x11,x6
80000ba0:	01069693          	slli	x13,x13,0x10
80000ba4:	00010fb7          	lui	x31,0x10
80000ba8:	00f6e6b3          	or	x13,x13,x15
80000bac:	41c585b3          	sub	x11,x11,x28
80000bb0:	ffff8e13          	addi	x28,x31,-1 # ffff <_start-0x7fff0001>
80000bb4:	01c6f7b3          	and	x15,x13,x28
80000bb8:	01065e93          	srli	x29,x12,0x10
80000bbc:	0106d693          	srli	x13,x13,0x10
80000bc0:	01c67e33          	and	x28,x12,x28
80000bc4:	03c78f33          	mul	x30,x15,x28
80000bc8:	03c68e33          	mul	x28,x13,x28
80000bcc:	03d787b3          	mul	x15,x15,x29
80000bd0:	03d686b3          	mul	x13,x13,x29
80000bd4:	01c78eb3          	add	x29,x15,x28
80000bd8:	010f5793          	srli	x15,x30,0x10
80000bdc:	01d787b3          	add	x15,x15,x29
80000be0:	01c7f463          	bgeu	x15,x28,80000be8 <__moddi3+0x3c4>
80000be4:	01f686b3          	add	x13,x13,x31
80000be8:	0107de13          	srli	x28,x15,0x10
80000bec:	00de06b3          	add	x13,x28,x13
80000bf0:	00010e37          	lui	x28,0x10
80000bf4:	fffe0e13          	addi	x28,x28,-1 # ffff <_start-0x7fff0001>
80000bf8:	01c7f7b3          	and	x15,x15,x28
80000bfc:	01079793          	slli	x15,x15,0x10
80000c00:	01cf7f33          	and	x30,x30,x28
80000c04:	01e787b3          	add	x15,x15,x30
80000c08:	00d5e663          	bltu	x11,x13,80000c14 <__moddi3+0x3f0>
80000c0c:	00d59e63          	bne	x11,x13,80000c28 <__moddi3+0x404>
80000c10:	00f57c63          	bgeu	x10,x15,80000c28 <__moddi3+0x404>
80000c14:	40c78633          	sub	x12,x15,x12
80000c18:	00c7be33          	sltu	x28,x15,x12
80000c1c:	00060793          	mv	x15,x12
80000c20:	006e0633          	add	x12,x28,x6
80000c24:	40c686b3          	sub	x13,x13,x12
80000c28:	40f507b3          	sub	x15,x10,x15
80000c2c:	00f53533          	sltu	x10,x10,x15
80000c30:	40d585b3          	sub	x11,x11,x13
80000c34:	40a585b3          	sub	x11,x11,x10
80000c38:	011598b3          	sll	x17,x11,x17
80000c3c:	00e7d7b3          	srl	x15,x15,x14
80000c40:	00f8e533          	or	x10,x17,x15
80000c44:	00e5d5b3          	srl	x11,x11,x14
80000c48:	ce9ff06f          	j	80000930 <__moddi3+0x10c>

80000c4c <__udivdi3>:
80000c4c:	00050893          	mv	x17,x10
80000c50:	00058313          	mv	x6,x11
80000c54:	00060713          	mv	x14,x12
80000c58:	00050813          	mv	x16,x10
80000c5c:	00058793          	mv	x15,x11
80000c60:	28069263          	bnez	x13,80000ee4 <__udivdi3+0x298>
80000c64:	800015b7          	lui	x11,0x80001
80000c68:	5e858593          	addi	x11,x11,1512 # 800015e8 <__clz_tab>
80000c6c:	0ec37663          	bgeu	x6,x12,80000d58 <__udivdi3+0x10c>
80000c70:	000106b7          	lui	x13,0x10
80000c74:	0cd67863          	bgeu	x12,x13,80000d44 <__udivdi3+0xf8>
80000c78:	10063693          	sltiu	x13,x12,256
80000c7c:	0016b693          	seqz	x13,x13
80000c80:	00369693          	slli	x13,x13,0x3
80000c84:	00d65533          	srl	x10,x12,x13
80000c88:	00a585b3          	add	x11,x11,x10
80000c8c:	0005c583          	lbu	x11,0(x11)
80000c90:	02000513          	li	x10,32
80000c94:	00d586b3          	add	x13,x11,x13
80000c98:	40d505b3          	sub	x11,x10,x13
80000c9c:	00d50c63          	beq	x10,x13,80000cb4 <__udivdi3+0x68>
80000ca0:	00b317b3          	sll	x15,x6,x11
80000ca4:	00d8d6b3          	srl	x13,x17,x13
80000ca8:	00b61733          	sll	x14,x12,x11
80000cac:	00f6e7b3          	or	x15,x13,x15
80000cb0:	00b89833          	sll	x16,x17,x11
80000cb4:	01075593          	srli	x11,x14,0x10
80000cb8:	02b7d333          	divu	x6,x15,x11
80000cbc:	01071613          	slli	x12,x14,0x10
80000cc0:	01065613          	srli	x12,x12,0x10
80000cc4:	02b7f7b3          	remu	x15,x15,x11
80000cc8:	00030513          	mv	x10,x6
80000ccc:	026608b3          	mul	x17,x12,x6
80000cd0:	01079693          	slli	x13,x15,0x10
80000cd4:	01085793          	srli	x15,x16,0x10
80000cd8:	00d7e7b3          	or	x15,x15,x13
80000cdc:	0117fe63          	bgeu	x15,x17,80000cf8 <__udivdi3+0xac>
80000ce0:	00f707b3          	add	x15,x14,x15
80000ce4:	fff30513          	addi	x10,x6,-1 # ffffff <_start-0x7f000001>
80000ce8:	00e7e863          	bltu	x15,x14,80000cf8 <__udivdi3+0xac>
80000cec:	0117f663          	bgeu	x15,x17,80000cf8 <__udivdi3+0xac>
80000cf0:	ffe30513          	addi	x10,x6,-2
80000cf4:	00e787b3          	add	x15,x15,x14
80000cf8:	411787b3          	sub	x15,x15,x17
80000cfc:	02b7d8b3          	divu	x17,x15,x11
80000d00:	01081813          	slli	x16,x16,0x10
80000d04:	01085813          	srli	x16,x16,0x10
80000d08:	02b7f7b3          	remu	x15,x15,x11
80000d0c:	031606b3          	mul	x13,x12,x17
80000d10:	01079793          	slli	x15,x15,0x10
80000d14:	00f86833          	or	x16,x16,x15
80000d18:	00088793          	mv	x15,x17
80000d1c:	00d87c63          	bgeu	x16,x13,80000d34 <__udivdi3+0xe8>
80000d20:	01070833          	add	x16,x14,x16
80000d24:	fff88793          	addi	x15,x17,-1 # ffffff <_start-0x7f000001>
80000d28:	00e86663          	bltu	x16,x14,80000d34 <__udivdi3+0xe8>
80000d2c:	00d87463          	bgeu	x16,x13,80000d34 <__udivdi3+0xe8>
80000d30:	ffe88793          	addi	x15,x17,-2
80000d34:	01051513          	slli	x10,x10,0x10
80000d38:	00f56533          	or	x10,x10,x15
80000d3c:	00000593          	li	x11,0
80000d40:	00008067          	ret
80000d44:	01000537          	lui	x10,0x1000
80000d48:	01800693          	li	x13,24
80000d4c:	f2a67ce3          	bgeu	x12,x10,80000c84 <__udivdi3+0x38>
80000d50:	01000693          	li	x13,16
80000d54:	f31ff06f          	j	80000c84 <__udivdi3+0x38>
80000d58:	00000693          	li	x13,0
80000d5c:	00060c63          	beqz	x12,80000d74 <__udivdi3+0x128>
80000d60:	000107b7          	lui	x15,0x10
80000d64:	0cf67063          	bgeu	x12,x15,80000e24 <__udivdi3+0x1d8>
80000d68:	10063693          	sltiu	x13,x12,256
80000d6c:	0016b693          	seqz	x13,x13
80000d70:	00369693          	slli	x13,x13,0x3
80000d74:	00d657b3          	srl	x15,x12,x13
80000d78:	00f585b3          	add	x11,x11,x15
80000d7c:	0005c783          	lbu	x15,0(x11)
80000d80:	00d787b3          	add	x15,x15,x13
80000d84:	02000693          	li	x13,32
80000d88:	40f685b3          	sub	x11,x13,x15
80000d8c:	0af69663          	bne	x13,x15,80000e38 <__udivdi3+0x1ec>
80000d90:	40c307b3          	sub	x15,x6,x12
80000d94:	00100593          	li	x11,1
80000d98:	01075893          	srli	x17,x14,0x10
80000d9c:	0317de33          	divu	x28,x15,x17
80000da0:	01071613          	slli	x12,x14,0x10
80000da4:	01065613          	srli	x12,x12,0x10
80000da8:	01085693          	srli	x13,x16,0x10
80000dac:	0317f7b3          	remu	x15,x15,x17
80000db0:	000e0513          	mv	x10,x28
80000db4:	03c60333          	mul	x6,x12,x28
80000db8:	01079793          	slli	x15,x15,0x10
80000dbc:	00f6e7b3          	or	x15,x13,x15
80000dc0:	0067fe63          	bgeu	x15,x6,80000ddc <__udivdi3+0x190>
80000dc4:	00f707b3          	add	x15,x14,x15
80000dc8:	fffe0513          	addi	x10,x28,-1
80000dcc:	00e7e863          	bltu	x15,x14,80000ddc <__udivdi3+0x190>
80000dd0:	0067f663          	bgeu	x15,x6,80000ddc <__udivdi3+0x190>
80000dd4:	ffee0513          	addi	x10,x28,-2
80000dd8:	00e787b3          	add	x15,x15,x14
80000ddc:	406787b3          	sub	x15,x15,x6
80000de0:	0317d333          	divu	x6,x15,x17
80000de4:	01081813          	slli	x16,x16,0x10
80000de8:	01085813          	srli	x16,x16,0x10
80000dec:	0317f7b3          	remu	x15,x15,x17
80000df0:	026606b3          	mul	x13,x12,x6
80000df4:	01079793          	slli	x15,x15,0x10
80000df8:	00f86833          	or	x16,x16,x15
80000dfc:	00030793          	mv	x15,x6
80000e00:	00d87c63          	bgeu	x16,x13,80000e18 <__udivdi3+0x1cc>
80000e04:	01070833          	add	x16,x14,x16
80000e08:	fff30793          	addi	x15,x6,-1
80000e0c:	00e86663          	bltu	x16,x14,80000e18 <__udivdi3+0x1cc>
80000e10:	00d87463          	bgeu	x16,x13,80000e18 <__udivdi3+0x1cc>
80000e14:	ffe30793          	addi	x15,x6,-2
80000e18:	01051513          	slli	x10,x10,0x10
80000e1c:	00f56533          	or	x10,x10,x15
80000e20:	00008067          	ret
80000e24:	010007b7          	lui	x15,0x1000
80000e28:	01800693          	li	x13,24
80000e2c:	f4f674e3          	bgeu	x12,x15,80000d74 <__udivdi3+0x128>
80000e30:	01000693          	li	x13,16
80000e34:	f41ff06f          	j	80000d74 <__udivdi3+0x128>
80000e38:	00b61733          	sll	x14,x12,x11
80000e3c:	00f356b3          	srl	x13,x6,x15
80000e40:	01075513          	srli	x10,x14,0x10
80000e44:	00b31333          	sll	x6,x6,x11
80000e48:	00f8d7b3          	srl	x15,x17,x15
80000e4c:	0067e7b3          	or	x15,x15,x6
80000e50:	02a6d333          	divu	x6,x13,x10
80000e54:	01071613          	slli	x12,x14,0x10
80000e58:	01065613          	srli	x12,x12,0x10
80000e5c:	00b89833          	sll	x16,x17,x11
80000e60:	02a6f6b3          	remu	x13,x13,x10
80000e64:	026608b3          	mul	x17,x12,x6
80000e68:	01069593          	slli	x11,x13,0x10
80000e6c:	0107d693          	srli	x13,x15,0x10
80000e70:	00b6e6b3          	or	x13,x13,x11
80000e74:	00030593          	mv	x11,x6
80000e78:	0116fe63          	bgeu	x13,x17,80000e94 <__udivdi3+0x248>
80000e7c:	00d706b3          	add	x13,x14,x13
80000e80:	fff30593          	addi	x11,x6,-1
80000e84:	00e6e863          	bltu	x13,x14,80000e94 <__udivdi3+0x248>
80000e88:	0116f663          	bgeu	x13,x17,80000e94 <__udivdi3+0x248>
80000e8c:	ffe30593          	addi	x11,x6,-2
80000e90:	00e686b3          	add	x13,x13,x14
80000e94:	411686b3          	sub	x13,x13,x17
80000e98:	02a6d8b3          	divu	x17,x13,x10
80000e9c:	01079793          	slli	x15,x15,0x10
80000ea0:	0107d793          	srli	x15,x15,0x10
80000ea4:	02a6f6b3          	remu	x13,x13,x10
80000ea8:	03160633          	mul	x12,x12,x17
80000eac:	01069693          	slli	x13,x13,0x10
80000eb0:	00d7e7b3          	or	x15,x15,x13
80000eb4:	00088693          	mv	x13,x17
80000eb8:	00c7fe63          	bgeu	x15,x12,80000ed4 <__udivdi3+0x288>
80000ebc:	00f707b3          	add	x15,x14,x15
80000ec0:	fff88693          	addi	x13,x17,-1
80000ec4:	00e7e863          	bltu	x15,x14,80000ed4 <__udivdi3+0x288>
80000ec8:	00c7f663          	bgeu	x15,x12,80000ed4 <__udivdi3+0x288>
80000ecc:	ffe88693          	addi	x13,x17,-2
80000ed0:	00e787b3          	add	x15,x15,x14
80000ed4:	01059593          	slli	x11,x11,0x10
80000ed8:	40c787b3          	sub	x15,x15,x12
80000edc:	00d5e5b3          	or	x11,x11,x13
80000ee0:	eb9ff06f          	j	80000d98 <__udivdi3+0x14c>
80000ee4:	18d5e663          	bltu	x11,x13,80001070 <__udivdi3+0x424>
80000ee8:	000107b7          	lui	x15,0x10
80000eec:	04f6f463          	bgeu	x13,x15,80000f34 <__udivdi3+0x2e8>
80000ef0:	1006b713          	sltiu	x14,x13,256
80000ef4:	00173713          	seqz	x14,x14
80000ef8:	00371713          	slli	x14,x14,0x3
80000efc:	800017b7          	lui	x15,0x80001
80000f00:	00e6d5b3          	srl	x11,x13,x14
80000f04:	5e878793          	addi	x15,x15,1512 # 800015e8 <__clz_tab>
80000f08:	00b787b3          	add	x15,x15,x11
80000f0c:	0007c783          	lbu	x15,0(x15)
80000f10:	00e787b3          	add	x15,x15,x14
80000f14:	02000713          	li	x14,32
80000f18:	40f705b3          	sub	x11,x14,x15
80000f1c:	02f71663          	bne	x14,x15,80000f48 <__udivdi3+0x2fc>
80000f20:	00100513          	li	x10,1
80000f24:	e066eee3          	bltu	x13,x6,80000d40 <__udivdi3+0xf4>
80000f28:	00c8b533          	sltu	x10,x17,x12
80000f2c:	00153513          	seqz	x10,x10
80000f30:	00008067          	ret
80000f34:	010007b7          	lui	x15,0x1000
80000f38:	01800713          	li	x14,24
80000f3c:	fcf6f0e3          	bgeu	x13,x15,80000efc <__udivdi3+0x2b0>
80000f40:	01000713          	li	x14,16
80000f44:	fb9ff06f          	j	80000efc <__udivdi3+0x2b0>
80000f48:	00f65733          	srl	x14,x12,x15
80000f4c:	00b696b3          	sll	x13,x13,x11
80000f50:	00d766b3          	or	x13,x14,x13
80000f54:	00f35733          	srl	x14,x6,x15
80000f58:	00b31333          	sll	x6,x6,x11
80000f5c:	00f8d7b3          	srl	x15,x17,x15
80000f60:	0067e7b3          	or	x15,x15,x6
80000f64:	0106d313          	srli	x6,x13,0x10
80000f68:	02675eb3          	divu	x29,x14,x6
80000f6c:	01069813          	slli	x16,x13,0x10
80000f70:	01085813          	srli	x16,x16,0x10
80000f74:	00b61633          	sll	x12,x12,x11
80000f78:	02677733          	remu	x14,x14,x6
80000f7c:	03d80e33          	mul	x28,x16,x29
80000f80:	01071513          	slli	x10,x14,0x10
80000f84:	0107d713          	srli	x14,x15,0x10
80000f88:	00a76733          	or	x14,x14,x10
80000f8c:	000e8513          	mv	x10,x29
80000f90:	01c77e63          	bgeu	x14,x28,80000fac <__udivdi3+0x360>
80000f94:	00e68733          	add	x14,x13,x14
80000f98:	fffe8513          	addi	x10,x29,-1
80000f9c:	00d76863          	bltu	x14,x13,80000fac <__udivdi3+0x360>
80000fa0:	01c77663          	bgeu	x14,x28,80000fac <__udivdi3+0x360>
80000fa4:	ffee8513          	addi	x10,x29,-2
80000fa8:	00d70733          	add	x14,x14,x13
80000fac:	41c70733          	sub	x14,x14,x28
80000fb0:	02675e33          	divu	x28,x14,x6
80000fb4:	01079793          	slli	x15,x15,0x10
80000fb8:	0107d793          	srli	x15,x15,0x10
80000fbc:	02677733          	remu	x14,x14,x6
80000fc0:	03c80833          	mul	x16,x16,x28
80000fc4:	01071713          	slli	x14,x14,0x10
80000fc8:	00e7e7b3          	or	x15,x15,x14
80000fcc:	000e0713          	mv	x14,x28
80000fd0:	0107fe63          	bgeu	x15,x16,80000fec <__udivdi3+0x3a0>
80000fd4:	00f687b3          	add	x15,x13,x15
80000fd8:	fffe0713          	addi	x14,x28,-1
80000fdc:	00d7e863          	bltu	x15,x13,80000fec <__udivdi3+0x3a0>
80000fe0:	0107f663          	bgeu	x15,x16,80000fec <__udivdi3+0x3a0>
80000fe4:	ffee0713          	addi	x14,x28,-2
80000fe8:	00d787b3          	add	x15,x15,x13
80000fec:	01051513          	slli	x10,x10,0x10
80000ff0:	00010e37          	lui	x28,0x10
80000ff4:	00e56533          	or	x10,x10,x14
80000ff8:	fffe0693          	addi	x13,x28,-1 # ffff <_start-0x7fff0001>
80000ffc:	00d57733          	and	x14,x10,x13
80001000:	410787b3          	sub	x15,x15,x16
80001004:	00d676b3          	and	x13,x12,x13
80001008:	01055813          	srli	x16,x10,0x10
8000100c:	01065613          	srli	x12,x12,0x10
80001010:	02d70333          	mul	x6,x14,x13
80001014:	02d806b3          	mul	x13,x16,x13
80001018:	02c70733          	mul	x14,x14,x12
8000101c:	02c80833          	mul	x16,x16,x12
80001020:	00d70633          	add	x12,x14,x13
80001024:	01035713          	srli	x14,x6,0x10
80001028:	00c70733          	add	x14,x14,x12
8000102c:	00d77463          	bgeu	x14,x13,80001034 <__udivdi3+0x3e8>
80001030:	01c80833          	add	x16,x16,x28
80001034:	01075693          	srli	x13,x14,0x10
80001038:	010686b3          	add	x13,x13,x16
8000103c:	02d7e663          	bltu	x15,x13,80001068 <__udivdi3+0x41c>
80001040:	ced79ee3          	bne	x15,x13,80000d3c <__udivdi3+0xf0>
80001044:	000107b7          	lui	x15,0x10
80001048:	fff78793          	addi	x15,x15,-1 # ffff <_start-0x7fff0001>
8000104c:	00f77733          	and	x14,x14,x15
80001050:	01071713          	slli	x14,x14,0x10
80001054:	00f37333          	and	x6,x6,x15
80001058:	00b898b3          	sll	x17,x17,x11
8000105c:	00670733          	add	x14,x14,x6
80001060:	00000593          	li	x11,0
80001064:	cce8fee3          	bgeu	x17,x14,80000d40 <__udivdi3+0xf4>
80001068:	fff50513          	addi	x10,x10,-1 # ffffff <_start-0x7f000001>
8000106c:	cd1ff06f          	j	80000d3c <__udivdi3+0xf0>
80001070:	00000593          	li	x11,0
80001074:	00000513          	li	x10,0
80001078:	00008067          	ret

8000107c <__umoddi3>:
8000107c:	00060813          	mv	x16,x12
80001080:	00050793          	mv	x15,x10
80001084:	00058713          	mv	x14,x11
80001088:	20069663          	bnez	x13,80001294 <__umoddi3+0x218>
8000108c:	800018b7          	lui	x17,0x80001
80001090:	5e888893          	addi	x17,x17,1512 # 800015e8 <__clz_tab>
80001094:	0cc5fc63          	bgeu	x11,x12,8000116c <__umoddi3+0xf0>
80001098:	000106b7          	lui	x13,0x10
8000109c:	0ad67e63          	bgeu	x12,x13,80001158 <__umoddi3+0xdc>
800010a0:	10063693          	sltiu	x13,x12,256
800010a4:	0016b693          	seqz	x13,x13
800010a8:	00369693          	slli	x13,x13,0x3
800010ac:	00d65333          	srl	x6,x12,x13
800010b0:	006888b3          	add	x17,x17,x6
800010b4:	0008c883          	lbu	x17,0(x17)
800010b8:	02000313          	li	x6,32
800010bc:	00d886b3          	add	x13,x17,x13
800010c0:	40d308b3          	sub	x17,x6,x13
800010c4:	00d30c63          	beq	x6,x13,800010dc <__umoddi3+0x60>
800010c8:	01159733          	sll	x14,x11,x17
800010cc:	00d556b3          	srl	x13,x10,x13
800010d0:	01161833          	sll	x16,x12,x17
800010d4:	00e6e733          	or	x14,x13,x14
800010d8:	011517b3          	sll	x15,x10,x17
800010dc:	01085613          	srli	x12,x16,0x10
800010e0:	02c756b3          	divu	x13,x14,x12
800010e4:	01081513          	slli	x10,x16,0x10
800010e8:	01055513          	srli	x10,x10,0x10
800010ec:	02c77733          	remu	x14,x14,x12
800010f0:	02a686b3          	mul	x13,x13,x10
800010f4:	01071593          	slli	x11,x14,0x10
800010f8:	0107d713          	srli	x14,x15,0x10
800010fc:	00b76733          	or	x14,x14,x11
80001100:	00d77a63          	bgeu	x14,x13,80001114 <__umoddi3+0x98>
80001104:	00e80733          	add	x14,x16,x14
80001108:	01076663          	bltu	x14,x16,80001114 <__umoddi3+0x98>
8000110c:	00d77463          	bgeu	x14,x13,80001114 <__umoddi3+0x98>
80001110:	01070733          	add	x14,x14,x16
80001114:	40d70733          	sub	x14,x14,x13
80001118:	02c756b3          	divu	x13,x14,x12
8000111c:	02c77733          	remu	x14,x14,x12
80001120:	02a686b3          	mul	x13,x13,x10
80001124:	01079793          	slli	x15,x15,0x10
80001128:	01071713          	slli	x14,x14,0x10
8000112c:	0107d793          	srli	x15,x15,0x10
80001130:	00e7e7b3          	or	x15,x15,x14
80001134:	00d7fa63          	bgeu	x15,x13,80001148 <__umoddi3+0xcc>
80001138:	00f807b3          	add	x15,x16,x15
8000113c:	0107e663          	bltu	x15,x16,80001148 <__umoddi3+0xcc>
80001140:	00d7f463          	bgeu	x15,x13,80001148 <__umoddi3+0xcc>
80001144:	010787b3          	add	x15,x15,x16
80001148:	40d787b3          	sub	x15,x15,x13
8000114c:	0117d533          	srl	x10,x15,x17
80001150:	00000593          	li	x11,0
80001154:	00008067          	ret
80001158:	01000337          	lui	x6,0x1000
8000115c:	01800693          	li	x13,24
80001160:	f46676e3          	bgeu	x12,x6,800010ac <__umoddi3+0x30>
80001164:	01000693          	li	x13,16
80001168:	f45ff06f          	j	800010ac <__umoddi3+0x30>
8000116c:	00000693          	li	x13,0
80001170:	00060c63          	beqz	x12,80001188 <__umoddi3+0x10c>
80001174:	00010737          	lui	x14,0x10
80001178:	06e67e63          	bgeu	x12,x14,800011f4 <__umoddi3+0x178>
8000117c:	10063693          	sltiu	x13,x12,256
80001180:	0016b693          	seqz	x13,x13
80001184:	00369693          	slli	x13,x13,0x3
80001188:	00d65733          	srl	x14,x12,x13
8000118c:	00e888b3          	add	x17,x17,x14
80001190:	0008c703          	lbu	x14,0(x17)
80001194:	00d70733          	add	x14,x14,x13
80001198:	02000693          	li	x13,32
8000119c:	40e688b3          	sub	x17,x13,x14
800011a0:	06e69463          	bne	x13,x14,80001208 <__umoddi3+0x18c>
800011a4:	40c58733          	sub	x14,x11,x12
800011a8:	01085593          	srli	x11,x16,0x10
800011ac:	02b75633          	divu	x12,x14,x11
800011b0:	01081513          	slli	x10,x16,0x10
800011b4:	01055513          	srli	x10,x10,0x10
800011b8:	0107d693          	srli	x13,x15,0x10
800011bc:	02b77733          	remu	x14,x14,x11
800011c0:	02a60633          	mul	x12,x12,x10
800011c4:	01071713          	slli	x14,x14,0x10
800011c8:	00e6e733          	or	x14,x13,x14
800011cc:	00c77a63          	bgeu	x14,x12,800011e0 <__umoddi3+0x164>
800011d0:	00e80733          	add	x14,x16,x14
800011d4:	01076663          	bltu	x14,x16,800011e0 <__umoddi3+0x164>
800011d8:	00c77463          	bgeu	x14,x12,800011e0 <__umoddi3+0x164>
800011dc:	01070733          	add	x14,x14,x16
800011e0:	40c70733          	sub	x14,x14,x12
800011e4:	02b756b3          	divu	x13,x14,x11
800011e8:	02b77733          	remu	x14,x14,x11
800011ec:	02a686b3          	mul	x13,x13,x10
800011f0:	f35ff06f          	j	80001124 <__umoddi3+0xa8>
800011f4:	01000737          	lui	x14,0x1000
800011f8:	01800693          	li	x13,24
800011fc:	f8e676e3          	bgeu	x12,x14,80001188 <__umoddi3+0x10c>
80001200:	01000693          	li	x13,16
80001204:	f85ff06f          	j	80001188 <__umoddi3+0x10c>
80001208:	01161833          	sll	x16,x12,x17
8000120c:	00e5d6b3          	srl	x13,x11,x14
80001210:	011517b3          	sll	x15,x10,x17
80001214:	011595b3          	sll	x11,x11,x17
80001218:	00e55733          	srl	x14,x10,x14
8000121c:	01085513          	srli	x10,x16,0x10
80001220:	00b76733          	or	x14,x14,x11
80001224:	02a6d5b3          	divu	x11,x13,x10
80001228:	01081313          	slli	x6,x16,0x10
8000122c:	01035313          	srli	x6,x6,0x10
80001230:	02a6f6b3          	remu	x13,x13,x10
80001234:	026585b3          	mul	x11,x11,x6
80001238:	01069613          	slli	x12,x13,0x10
8000123c:	01075693          	srli	x13,x14,0x10
80001240:	00c6e6b3          	or	x13,x13,x12
80001244:	00b6fa63          	bgeu	x13,x11,80001258 <__umoddi3+0x1dc>
80001248:	00d806b3          	add	x13,x16,x13
8000124c:	0106e663          	bltu	x13,x16,80001258 <__umoddi3+0x1dc>
80001250:	00b6f463          	bgeu	x13,x11,80001258 <__umoddi3+0x1dc>
80001254:	010686b3          	add	x13,x13,x16
80001258:	40b686b3          	sub	x13,x13,x11
8000125c:	02a6d633          	divu	x12,x13,x10
80001260:	01071713          	slli	x14,x14,0x10
80001264:	01075713          	srli	x14,x14,0x10
80001268:	02a6f6b3          	remu	x13,x13,x10
8000126c:	02660633          	mul	x12,x12,x6
80001270:	01069693          	slli	x13,x13,0x10
80001274:	00d76733          	or	x14,x14,x13
80001278:	00c77a63          	bgeu	x14,x12,8000128c <__umoddi3+0x210>
8000127c:	00e80733          	add	x14,x16,x14
80001280:	01076663          	bltu	x14,x16,8000128c <__umoddi3+0x210>
80001284:	00c77463          	bgeu	x14,x12,8000128c <__umoddi3+0x210>
80001288:	01070733          	add	x14,x14,x16
8000128c:	40c70733          	sub	x14,x14,x12
80001290:	f19ff06f          	j	800011a8 <__umoddi3+0x12c>
80001294:	1cd5e463          	bltu	x11,x13,8000145c <__umoddi3+0x3e0>
80001298:	00010837          	lui	x16,0x10
8000129c:	0506fe63          	bgeu	x13,x16,800012f8 <__umoddi3+0x27c>
800012a0:	1006b813          	sltiu	x16,x13,256
800012a4:	00183813          	seqz	x16,x16
800012a8:	00381813          	slli	x16,x16,0x3
800012ac:	800018b7          	lui	x17,0x80001
800012b0:	0106d333          	srl	x6,x13,x16
800012b4:	5e888893          	addi	x17,x17,1512 # 800015e8 <__clz_tab>
800012b8:	006888b3          	add	x17,x17,x6
800012bc:	0008c883          	lbu	x17,0(x17)
800012c0:	02000313          	li	x6,32
800012c4:	010888b3          	add	x17,x17,x16
800012c8:	41130833          	sub	x16,x6,x17
800012cc:	05131063          	bne	x6,x17,8000130c <__umoddi3+0x290>
800012d0:	00b6e463          	bltu	x13,x11,800012d8 <__umoddi3+0x25c>
800012d4:	00c56c63          	bltu	x10,x12,800012ec <__umoddi3+0x270>
800012d8:	40c50633          	sub	x12,x10,x12
800012dc:	40d586b3          	sub	x13,x11,x13
800012e0:	00c53733          	sltu	x14,x10,x12
800012e4:	00060793          	mv	x15,x12
800012e8:	40e68733          	sub	x14,x13,x14
800012ec:	00078513          	mv	x10,x15
800012f0:	00070593          	mv	x11,x14
800012f4:	00008067          	ret
800012f8:	010008b7          	lui	x17,0x1000
800012fc:	01800813          	li	x16,24
80001300:	fb16f6e3          	bgeu	x13,x17,800012ac <__umoddi3+0x230>
80001304:	01000813          	li	x16,16
80001308:	fa5ff06f          	j	800012ac <__umoddi3+0x230>
8000130c:	011657b3          	srl	x15,x12,x17
80001310:	010696b3          	sll	x13,x13,x16
80001314:	00d7e6b3          	or	x13,x15,x13
80001318:	0115d733          	srl	x14,x11,x17
8000131c:	0106de13          	srli	x28,x13,0x10
80001320:	03c75f33          	divu	x30,x14,x28
80001324:	01069313          	slli	x6,x13,0x10
80001328:	01035313          	srli	x6,x6,0x10
8000132c:	010597b3          	sll	x15,x11,x16
80001330:	011555b3          	srl	x11,x10,x17
80001334:	00f5e5b3          	or	x11,x11,x15
80001338:	0105d793          	srli	x15,x11,0x10
8000133c:	01061633          	sll	x12,x12,x16
80001340:	01051533          	sll	x10,x10,x16
80001344:	03c77733          	remu	x14,x14,x28
80001348:	03e30eb3          	mul	x29,x6,x30
8000134c:	01071713          	slli	x14,x14,0x10
80001350:	00e7e7b3          	or	x15,x15,x14
80001354:	000f0713          	mv	x14,x30
80001358:	01d7fe63          	bgeu	x15,x29,80001374 <__umoddi3+0x2f8>
8000135c:	00f687b3          	add	x15,x13,x15
80001360:	ffff0713          	addi	x14,x30,-1
80001364:	00d7e863          	bltu	x15,x13,80001374 <__umoddi3+0x2f8>
80001368:	01d7f663          	bgeu	x15,x29,80001374 <__umoddi3+0x2f8>
8000136c:	ffef0713          	addi	x14,x30,-2
80001370:	00d787b3          	add	x15,x15,x13
80001374:	41d787b3          	sub	x15,x15,x29
80001378:	03c7deb3          	divu	x29,x15,x28
8000137c:	01059593          	slli	x11,x11,0x10
80001380:	0105d593          	srli	x11,x11,0x10
80001384:	03c7f7b3          	remu	x15,x15,x28
80001388:	000e8e13          	mv	x28,x29
8000138c:	03d30333          	mul	x6,x6,x29
80001390:	01079793          	slli	x15,x15,0x10
80001394:	00f5e5b3          	or	x11,x11,x15
80001398:	0065fe63          	bgeu	x11,x6,800013b4 <__umoddi3+0x338>
8000139c:	00b685b3          	add	x11,x13,x11
800013a0:	fffe8e13          	addi	x28,x29,-1
800013a4:	00d5e863          	bltu	x11,x13,800013b4 <__umoddi3+0x338>
800013a8:	0065f663          	bgeu	x11,x6,800013b4 <__umoddi3+0x338>
800013ac:	ffee8e13          	addi	x28,x29,-2
800013b0:	00d585b3          	add	x11,x11,x13
800013b4:	01071793          	slli	x15,x14,0x10
800013b8:	00010f37          	lui	x30,0x10
800013bc:	01c7e7b3          	or	x15,x15,x28
800013c0:	406585b3          	sub	x11,x11,x6
800013c4:	ffff0313          	addi	x6,x30,-1 # ffff <_start-0x7fff0001>
800013c8:	0067f733          	and	x14,x15,x6
800013cc:	01065e13          	srli	x28,x12,0x10
800013d0:	0107d793          	srli	x15,x15,0x10
800013d4:	00667333          	and	x6,x12,x6
800013d8:	02670eb3          	mul	x29,x14,x6
800013dc:	02678333          	mul	x6,x15,x6
800013e0:	03c70733          	mul	x14,x14,x28
800013e4:	03c787b3          	mul	x15,x15,x28
800013e8:	00670e33          	add	x28,x14,x6
800013ec:	010ed713          	srli	x14,x29,0x10
800013f0:	01c70733          	add	x14,x14,x28
800013f4:	00677463          	bgeu	x14,x6,800013fc <__umoddi3+0x380>
800013f8:	01e787b3          	add	x15,x15,x30
800013fc:	01075313          	srli	x6,x14,0x10
80001400:	00f307b3          	add	x15,x6,x15
80001404:	00010337          	lui	x6,0x10
80001408:	fff30313          	addi	x6,x6,-1 # ffff <_start-0x7fff0001>
8000140c:	00677733          	and	x14,x14,x6
80001410:	01071713          	slli	x14,x14,0x10
80001414:	006efeb3          	and	x29,x29,x6
80001418:	01d70733          	add	x14,x14,x29
8000141c:	00f5e663          	bltu	x11,x15,80001428 <__umoddi3+0x3ac>
80001420:	00f59e63          	bne	x11,x15,8000143c <__umoddi3+0x3c0>
80001424:	00e57c63          	bgeu	x10,x14,8000143c <__umoddi3+0x3c0>
80001428:	40c70633          	sub	x12,x14,x12
8000142c:	00c73333          	sltu	x6,x14,x12
80001430:	00d306b3          	add	x13,x6,x13
80001434:	00060713          	mv	x14,x12
80001438:	40d787b3          	sub	x15,x15,x13
8000143c:	40e50733          	sub	x14,x10,x14
80001440:	00e53533          	sltu	x10,x10,x14
80001444:	40f585b3          	sub	x11,x11,x15
80001448:	40a585b3          	sub	x11,x11,x10
8000144c:	011598b3          	sll	x17,x11,x17
80001450:	01075733          	srl	x14,x14,x16
80001454:	00e8e533          	or	x10,x17,x14
80001458:	0105d5b3          	srl	x11,x11,x16
8000145c:	00008067          	ret
